ARM GAS  C:\Users\nico_\AppData\Local\Temp\ccFMozQM.s 			page 1


   1              		.syntax unified
   2              		.cpu cortex-m3
   3              		.fpu softvfp
   4              		.eabi_attribute 20, 1
   5              		.eabi_attribute 21, 1
   6              		.eabi_attribute 23, 3
   7              		.eabi_attribute 24, 1
   8              		.eabi_attribute 25, 1
   9              		.eabi_attribute 26, 1
  10              		.eabi_attribute 30, 1
  11              		.eabi_attribute 34, 1
  12              		.eabi_attribute 18, 4
  13              		.thumb
  14              		.syntax unified
  15              		.file	"Amplifier.c"
  16              		.text
  17              	.Ltext0:
  18              		.cfi_sections	.debug_frame
  19              		.section	.text.Conc_RTDdata,"ax",%progbits
  20              		.align	2
  21              		.global	Conc_RTDdata
  22              		.thumb
  23              		.thumb_func
  24              		.type	Conc_RTDdata, %function
  25              	Conc_RTDdata:
  26              	.LFB6:
  27              		.file 1 "Amplifier.c"
   1:Amplifier.c   **** /* ========================================
   2:Amplifier.c   ****  *
   3:Amplifier.c   ****  * Copyright YOUR COMPANY, THE YEAR
   4:Amplifier.c   ****  * All Rights Reserved
   5:Amplifier.c   ****  * UNPUBLISHED, LICENSED SOFTWARE.
   6:Amplifier.c   ****  *
   7:Amplifier.c   ****  * CONFIDENTIAL AND PROPRIETARY INFORMATION
   8:Amplifier.c   ****  * WHICH IS THE PROPERTY OF your company.
   9:Amplifier.c   ****  *
  10:Amplifier.c   ****  * ========================================
  11:Amplifier.c   **** */
  12:Amplifier.c   **** #include "Amplifier.h"
  13:Amplifier.c   **** #include "AmplifierRegisters.h"
  14:Amplifier.c   **** 
  15:Amplifier.c   **** /*Internal function declarations*/
  16:Amplifier.c   **** void SPI_Setup();
  17:Amplifier.c   **** void MAX31865_Setup();
  18:Amplifier.c   **** void Set_WireSetup(char wireconfig);
  19:Amplifier.c   **** void Set_FilterSetup(char filterconfig);
  20:Amplifier.c   **** void Set_VBIAS(char vbias_mode);
  21:Amplifier.c   **** void Clear_Fault();
  22:Amplifier.c   **** void Set_ConverionMode(char conversionmode);
  23:Amplifier.c   **** void WriteByteToAdress(char adress, char data);
  24:Amplifier.c   **** char ReadByteFromAdress(char adress);
  25:Amplifier.c   **** uint16_t Conc_RTDdata(uint8_t MSB, uint8_t LSB);
  26:Amplifier.c   **** 
  27:Amplifier.c   **** /*Internal variables declartion*/
  28:Amplifier.c   **** uint16_t rtd_ratio;
  29:Amplifier.c   **** 
  30:Amplifier.c   **** 
ARM GAS  C:\Users\nico_\AppData\Local\Temp\ccFMozQM.s 			page 2


  31:Amplifier.c   **** 
  32:Amplifier.c   **** /*Does initial setup of the amplifier*/
  33:Amplifier.c   **** void Amplifier_Setup()
  34:Amplifier.c   **** {
  35:Amplifier.c   ****     SPI_Setup();
  36:Amplifier.c   ****     MAX31865_Setup();
  37:Amplifier.c   ****     
  38:Amplifier.c   **** }
  39:Amplifier.c   **** 
  40:Amplifier.c   **** //Setup the microchipon the amplifier circuit
  41:Amplifier.c   **** void MAX31865_Setup()
  42:Amplifier.c   **** {
  43:Amplifier.c   ****     Set_WireSetup(TWO_OR_FOUR_WIRECONFIG);
  44:Amplifier.c   ****     Set_FilterSetup(FILTER_50HZ);
  45:Amplifier.c   ****     Set_VBIAS(VBIAS_ON);
  46:Amplifier.c   ****     Clear_Fault();
  47:Amplifier.c   **** }
  48:Amplifier.c   **** 
  49:Amplifier.c   **** /*Retrieve RTD ration by reading the RTD msb byte and 
  50:Amplifier.c   **** the RTD lsb byte from the amplifier registers*/
  51:Amplifier.c   **** uint16 GetRtdRatio()
  52:Amplifier.c   **** {
  53:Amplifier.c   ****     
  54:Amplifier.c   ****     uint16_t rtd_ratio;
  55:Amplifier.c   ****     //Read MSB byte from amplifier
  56:Amplifier.c   ****     char RTD_msb = ReadByteFromAdress(READ_RTD_MSB_REG_ADRESS);
  57:Amplifier.c   ****     
  58:Amplifier.c   ****     //Read LSB byte from amplifier
  59:Amplifier.c   ****     char RTD_lsb = ReadByteFromAdress(READ_RTD_LSB_REG_ADRESS);
  60:Amplifier.c   ****     
  61:Amplifier.c   ****     rtd_ratio = Conc_RTDdata(RTD_msb, RTD_lsb);
  62:Amplifier.c   ****     
  63:Amplifier.c   ****     return rtd_ratio;
  64:Amplifier.c   **** }
  65:Amplifier.c   **** 
  66:Amplifier.c   **** /*Make a controlled shuwdown off the amplifier. Meaning, shutting down temperature conversions
  67:Amplifier.c   **** shutting down the communication.*/
  68:Amplifier.c   **** void Amplifier_Shutdown()
  69:Amplifier.c   **** {
  70:Amplifier.c   ****     Set_ConverionMode(CONVERSIONMODE_OFF);
  71:Amplifier.c   ****     Set_VBIAS(VBIAS_OFF);
  72:Amplifier.c   ****     
  73:Amplifier.c   ****     Clock_SPI_Stop();
  74:Amplifier.c   ****     SPIM_1_Stop();
  75:Amplifier.c   ****     
  76:Amplifier.c   **** }
  77:Amplifier.c   **** 
  78:Amplifier.c   **** 
  79:Amplifier.c   **** /*Controlled startup after being shutdown. Setting up temperature conversion
  80:Amplifier.c   **** starting SPI communication again*/
  81:Amplifier.c   **** void Amplifier_Startup()
  82:Amplifier.c   **** {
  83:Amplifier.c   ****     //Starts SPI again
  84:Amplifier.c   ****     Clock_SPI_Start();
  85:Amplifier.c   ****     SPI_Setup();
  86:Amplifier.c   ****     
  87:Amplifier.c   ****     Set_VBIAS(VBIAS_ON);
ARM GAS  C:\Users\nico_\AppData\Local\Temp\ccFMozQM.s 			page 3


  88:Amplifier.c   ****     Set_ConverionMode(CONVERSIONMODE_AUTO);
  89:Amplifier.c   ****     Clear_Fault();
  90:Amplifier.c   ****     
  91:Amplifier.c   **** }
  92:Amplifier.c   **** 
  93:Amplifier.c   **** 
  94:Amplifier.c   **** uint16_t Conc_RTDdata(uint8_t MSB, uint8_t LSB)
  95:Amplifier.c   **** {
  28              		.loc 1 95 0
  29              		.cfi_startproc
  30              		@ args = 0, pretend = 0, frame = 0
  31              		@ frame_needed = 0, uses_anonymous_args = 0
  32              		@ link register save eliminated.
  33              	.LVL0:
  96:Amplifier.c   ****     //Concatenate MSB and LSB to form the 15 Bit RTD ration according to datasheet MAX31865 page 15
  97:Amplifier.c   ****     rtd_ratio = ((uint16_t)MSB << 7) | LSB>>1;
  34              		.loc 1 97 0
  35 0000 4908     		lsrs	r1, r1, #1
  36              	.LVL1:
  37 0002 41EAC010 		orr	r0, r1, r0, lsl #7
  38              	.LVL2:
  39 0006 014B     		ldr	r3, .L2
  40 0008 1880     		strh	r0, [r3]	@ movhi
  98:Amplifier.c   ****     return rtd_ratio;
  99:Amplifier.c   **** }
  41              		.loc 1 99 0
  42 000a 7047     		bx	lr
  43              	.L3:
  44              		.align	2
  45              	.L2:
  46 000c 00000000 		.word	rtd_ratio
  47              		.cfi_endproc
  48              	.LFE6:
  49              		.size	Conc_RTDdata, .-Conc_RTDdata
  50              		.section	.text.SPI_Setup,"ax",%progbits
  51              		.align	2
  52              		.global	SPI_Setup
  53              		.thumb
  54              		.thumb_func
  55              		.type	SPI_Setup, %function
  56              	SPI_Setup:
  57              	.LFB7:
 100:Amplifier.c   **** 
 101:Amplifier.c   **** 
 102:Amplifier.c   **** /*Setup SPI communication*/
 103:Amplifier.c   **** void SPI_Setup()
 104:Amplifier.c   **** {
  58              		.loc 1 104 0
  59              		.cfi_startproc
  60              		@ args = 0, pretend = 0, frame = 0
  61              		@ frame_needed = 0, uses_anonymous_args = 0
  62 0000 08B5     		push	{r3, lr}
  63              		.cfi_def_cfa_offset 8
  64              		.cfi_offset 3, -8
  65              		.cfi_offset 14, -4
 105:Amplifier.c   ****     //Start up SPI. All setups are done in the TopDesign file.
 106:Amplifier.c   ****     Clock_SPI_Start();
ARM GAS  C:\Users\nico_\AppData\Local\Temp\ccFMozQM.s 			page 4


  66              		.loc 1 106 0
  67 0002 FFF7FEFF 		bl	Clock_SPI_Start
  68              	.LVL3:
 107:Amplifier.c   ****     SPIM_1_Start();
  69              		.loc 1 107 0
  70 0006 FFF7FEFF 		bl	SPIM_1_Start
  71              	.LVL4:
  72 000a 08BD     		pop	{r3, pc}
  73              		.cfi_endproc
  74              	.LFE7:
  75              		.size	SPI_Setup, .-SPI_Setup
  76              		.section	.text.ReadByteFromAdress,"ax",%progbits
  77              		.align	2
  78              		.global	ReadByteFromAdress
  79              		.thumb
  80              		.thumb_func
  81              		.type	ReadByteFromAdress, %function
  82              	ReadByteFromAdress:
  83              	.LFB13:
 108:Amplifier.c   **** }
 109:Amplifier.c   **** 
 110:Amplifier.c   **** /*Setting up the amplifier for the current wire configuration
 111:Amplifier.c   **** This being a 2-wire config. Possible to do 3 og 4 wire as well*/
 112:Amplifier.c   **** void Set_WireSetup(char wireconfig)
 113:Amplifier.c   **** {
 114:Amplifier.c   ****     //Code to communicate the 2 wire config to the amplifier
 115:Amplifier.c   ****     //Set Bit D4 = 0. Look at datasheet for Max865
 116:Amplifier.c   ****     char config = ReadByteFromAdress(READ_CONFIG_REG_ADRESS);
 117:Amplifier.c   ****     
 118:Amplifier.c   ****     if(wireconfig == TWO_OR_FOUR_WIRECONFIG)
 119:Amplifier.c   ****     {
 120:Amplifier.c   ****         //Sets bit D4 = 0 equal to 2-wire config. See datasheet for max31865
 121:Amplifier.c   ****         config &= ~(1 << 3);
 122:Amplifier.c   ****         //Write new config setup to amplifier.
 123:Amplifier.c   ****         WriteByteToAdress(WRITE_CONFIG_REG_ADRESS,config); 
 124:Amplifier.c   ****     }
 125:Amplifier.c   ****     if(wireconfig == THREE_WIRECONFIG)
 126:Amplifier.c   ****     {
 127:Amplifier.c   ****         //Set bit D4 to 1
 128:Amplifier.c   ****         config |= 1 << 3;
 129:Amplifier.c   ****         //Write new config setup to amplifier.
 130:Amplifier.c   ****         WriteByteToAdress(WRITE_CONFIG_REG_ADRESS,config); 
 131:Amplifier.c   ****     }
 132:Amplifier.c   ****     
 133:Amplifier.c   **** }
 134:Amplifier.c   **** 
 135:Amplifier.c   **** 
 136:Amplifier.c   **** 
 137:Amplifier.c   **** /*Setting up the filter setup, either 50Hz or 60Hz
 138:Amplifier.c   **** Dependent on country (Denmark), this will be 50Hz*/
 139:Amplifier.c   **** void Set_FilterSetup(char filterconfig)
 140:Amplifier.c   **** {  
 141:Amplifier.c   ****     char config = ReadByteFromAdress(READ_CONFIG_REG_ADRESS);
 142:Amplifier.c   ****     if(filterconfig == FILTER_50HZ)
 143:Amplifier.c   ****     {
 144:Amplifier.c   ****        config |= FILTER_50HZ;
 145:Amplifier.c   ****        WriteByteToAdress(WRITE_CONFIG_REG_ADRESS,config); 
ARM GAS  C:\Users\nico_\AppData\Local\Temp\ccFMozQM.s 			page 5


 146:Amplifier.c   ****     }
 147:Amplifier.c   ****     if(filterconfig == FILTER_60HZ)
 148:Amplifier.c   ****     {
 149:Amplifier.c   ****         config &= ~(1 << 0);
 150:Amplifier.c   ****         WriteByteToAdress(WRITE_CONFIG_REG_ADRESS,config);
 151:Amplifier.c   ****     }
 152:Amplifier.c   ****     
 153:Amplifier.c   ****     
 154:Amplifier.c   **** }
 155:Amplifier.c   **** 
 156:Amplifier.c   **** //Sets the conversion mode to auto
 157:Amplifier.c   **** void Set_ConverionMode(char conversionmode)
 158:Amplifier.c   **** {
 159:Amplifier.c   ****     
 160:Amplifier.c   ****     char config = ReadByteFromAdress(READ_CONFIG_REG_ADRESS);
 161:Amplifier.c   ****     if(conversionmode == CONVERSIONMODE_AUTO)
 162:Amplifier.c   ****     {
 163:Amplifier.c   ****         config |= CONVERSIONMODE_AUTO;
 164:Amplifier.c   ****         WriteByteToAdress(WRITE_CONFIG_REG_ADRESS,config);
 165:Amplifier.c   ****     }
 166:Amplifier.c   ****     if(conversionmode==CONVERSIONMODE_OFF)
 167:Amplifier.c   ****     {
 168:Amplifier.c   ****         config &= ~(1 << 6);
 169:Amplifier.c   ****         WriteByteToAdress(WRITE_CONFIG_REG_ADRESS,config);
 170:Amplifier.c   ****     }
 171:Amplifier.c   **** 
 172:Amplifier.c   ****     
 173:Amplifier.c   **** }
 174:Amplifier.c   **** 
 175:Amplifier.c   **** void Set_VBIAS(char vbias_mode)
 176:Amplifier.c   **** {    
 177:Amplifier.c   ****     char config = ReadByteFromAdress(READ_CONFIG_REG_ADRESS);
 178:Amplifier.c   ****     if(vbias_mode == VBIAS_ON)
 179:Amplifier.c   ****     {
 180:Amplifier.c   ****         config |= CONVERSIONMODE_AUTO;
 181:Amplifier.c   ****         WriteByteToAdress(WRITE_CONFIG_REG_ADRESS,config);        
 182:Amplifier.c   ****     }
 183:Amplifier.c   ****     if(vbias_mode == VBIAS_OFF)
 184:Amplifier.c   ****     {
 185:Amplifier.c   ****         config &= ~(1 << 7);
 186:Amplifier.c   ****         WriteByteToAdress(WRITE_CONFIG_REG_ADRESS,config);
 187:Amplifier.c   ****     }
 188:Amplifier.c   **** 
 189:Amplifier.c   **** 
 190:Amplifier.c   **** }
 191:Amplifier.c   **** 
 192:Amplifier.c   **** //Clears the fault register upon setup
 193:Amplifier.c   **** void Clear_Fault()
 194:Amplifier.c   **** {
 195:Amplifier.c   ****     char config = ReadByteFromAdress(READ_CONFIG_REG_ADRESS);
 196:Amplifier.c   ****     config |= CLEAR_FAULTBIT;
 197:Amplifier.c   ****     WriteByteToAdress(WRITE_CONFIG_REG_ADRESS,config);
 198:Amplifier.c   **** }
 199:Amplifier.c   **** 
 200:Amplifier.c   **** char ReadByteFromAdress(char adress)
 201:Amplifier.c   **** {
  84              		.loc 1 201 0
ARM GAS  C:\Users\nico_\AppData\Local\Temp\ccFMozQM.s 			page 6


  85              		.cfi_startproc
  86              		@ args = 0, pretend = 0, frame = 0
  87              		@ frame_needed = 0, uses_anonymous_args = 0
  88              	.LVL5:
  89 0000 10B5     		push	{r4, lr}
  90              		.cfi_def_cfa_offset 8
  91              		.cfi_offset 4, -8
  92              		.cfi_offset 14, -4
  93 0002 0446     		mov	r4, r0
 202:Amplifier.c   ****     
 203:Amplifier.c   ****     SS_Write(0);
  94              		.loc 1 203 0
  95 0004 0020     		movs	r0, #0
  96              	.LVL6:
  97 0006 FFF7FEFF 		bl	SS_Write
  98              	.LVL7:
 204:Amplifier.c   ****     //According to the datasheet for the max31865 the amplifier first needs the read adress
 205:Amplifier.c   ****     //Then it needs a default signal, to return what is on the adress requested in the first SPI wr
 206:Amplifier.c   ****     SPIM_1_WriteTxData(adress);
  99              		.loc 1 206 0
 100 000a 2046     		mov	r0, r4
 101 000c FFF7FEFF 		bl	SPIM_1_WriteTxData
 102              	.LVL8:
 207:Amplifier.c   ****     SPIM_1_WriteTxData(0xFF);
 103              		.loc 1 207 0
 104 0010 FF20     		movs	r0, #255
 105 0012 FFF7FEFF 		bl	SPIM_1_WriteTxData
 106              	.LVL9:
 208:Amplifier.c   ****     SS_Write(255);
 107              		.loc 1 208 0
 108 0016 FF20     		movs	r0, #255
 109 0018 FFF7FEFF 		bl	SS_Write
 110              	.LVL10:
 209:Amplifier.c   ****     
 210:Amplifier.c   ****     char msg = SPIM_1_ReadRxData();
 111              		.loc 1 210 0
 112 001c FFF7FEFF 		bl	SPIM_1_ReadRxData
 113              	.LVL11:
 211:Amplifier.c   ****     msg = SPIM_1_ReadRxData();
 114              		.loc 1 211 0
 115 0020 FFF7FEFF 		bl	SPIM_1_ReadRxData
 116              	.LVL12:
 117 0024 0446     		mov	r4, r0
 118              	.LVL13:
 212:Amplifier.c   ****     
 213:Amplifier.c   ****     //Clear TX and RX FIFO for the SPI to make it ready for the next transmission.
 214:Amplifier.c   ****     SPIM_1_ClearFIFO();
 119              		.loc 1 214 0
 120 0026 FFF7FEFF 		bl	SPIM_1_ClearFIFO
 121              	.LVL14:
 215:Amplifier.c   ****     
 216:Amplifier.c   ****     return msg;
 217:Amplifier.c   ****     
 218:Amplifier.c   ****    
 219:Amplifier.c   **** }
 122              		.loc 1 219 0
 123 002a 2046     		mov	r0, r4
ARM GAS  C:\Users\nico_\AppData\Local\Temp\ccFMozQM.s 			page 7


 124 002c 10BD     		pop	{r4, pc}
 125              		.cfi_endproc
 126              	.LFE13:
 127              		.size	ReadByteFromAdress, .-ReadByteFromAdress
 128 002e 00BF     		.section	.text.GetRtdRatio,"ax",%progbits
 129              		.align	2
 130              		.global	GetRtdRatio
 131              		.thumb
 132              		.thumb_func
 133              		.type	GetRtdRatio, %function
 134              	GetRtdRatio:
 135              	.LFB3:
  52:Amplifier.c   ****     
 136              		.loc 1 52 0
 137              		.cfi_startproc
 138              		@ args = 0, pretend = 0, frame = 0
 139              		@ frame_needed = 0, uses_anonymous_args = 0
 140 0000 10B5     		push	{r4, lr}
 141              		.cfi_def_cfa_offset 8
 142              		.cfi_offset 4, -8
 143              		.cfi_offset 14, -4
  56:Amplifier.c   ****     
 144              		.loc 1 56 0
 145 0002 0120     		movs	r0, #1
 146 0004 FFF7FEFF 		bl	ReadByteFromAdress
 147              	.LVL15:
 148 0008 0446     		mov	r4, r0
 149              	.LVL16:
  59:Amplifier.c   ****     
 150              		.loc 1 59 0
 151 000a 0220     		movs	r0, #2
 152 000c FFF7FEFF 		bl	ReadByteFromAdress
 153              	.LVL17:
  61:Amplifier.c   ****     
 154              		.loc 1 61 0
 155 0010 0146     		mov	r1, r0
 156 0012 2046     		mov	r0, r4
 157              	.LVL18:
 158 0014 FFF7FEFF 		bl	Conc_RTDdata
 159              	.LVL19:
  64:Amplifier.c   **** 
 160              		.loc 1 64 0
 161 0018 10BD     		pop	{r4, pc}
 162              		.cfi_endproc
 163              	.LFE3:
 164              		.size	GetRtdRatio, .-GetRtdRatio
 165 001a 00BF     		.section	.text.WriteByteToAdress,"ax",%progbits
 166              		.align	2
 167              		.global	WriteByteToAdress
 168              		.thumb
 169              		.thumb_func
 170              		.type	WriteByteToAdress, %function
 171              	WriteByteToAdress:
 172              	.LFB14:
 220:Amplifier.c   **** 
 221:Amplifier.c   **** void WriteByteToAdress(char adress, char data)
 222:Amplifier.c   **** {
ARM GAS  C:\Users\nico_\AppData\Local\Temp\ccFMozQM.s 			page 8


 173              		.loc 1 222 0
 174              		.cfi_startproc
 175              		@ args = 0, pretend = 0, frame = 0
 176              		@ frame_needed = 0, uses_anonymous_args = 0
 177              	.LVL20:
 178 0000 38B5     		push	{r3, r4, r5, lr}
 179              		.cfi_def_cfa_offset 16
 180              		.cfi_offset 3, -16
 181              		.cfi_offset 4, -12
 182              		.cfi_offset 5, -8
 183              		.cfi_offset 14, -4
 184 0002 0546     		mov	r5, r0
 185 0004 0C46     		mov	r4, r1
 223:Amplifier.c   ****     //Pull Slave select low, start transmission.
 224:Amplifier.c   ****     SS_Write(0);
 186              		.loc 1 224 0
 187 0006 0020     		movs	r0, #0
 188              	.LVL21:
 189 0008 FFF7FEFF 		bl	SS_Write
 190              	.LVL22:
 225:Amplifier.c   ****     SPIM_1_WriteTxData(adress);
 191              		.loc 1 225 0
 192 000c 2846     		mov	r0, r5
 193 000e FFF7FEFF 		bl	SPIM_1_WriteTxData
 194              	.LVL23:
 226:Amplifier.c   ****     SPIM_1_WriteTxData(data);
 195              		.loc 1 226 0
 196 0012 2046     		mov	r0, r4
 197 0014 FFF7FEFF 		bl	SPIM_1_WriteTxData
 198              	.LVL24:
 227:Amplifier.c   ****     //Pull slave select up, end transmission.
 228:Amplifier.c   ****     SS_Write(255);
 199              		.loc 1 228 0
 200 0018 FF20     		movs	r0, #255
 201 001a FFF7FEFF 		bl	SS_Write
 202              	.LVL25:
 229:Amplifier.c   ****     
 230:Amplifier.c   ****     //This is done to empty the data received for every WRITE in the RX buffer and TX
 231:Amplifier.c   ****    SPIM_1_ClearFIFO();
 203              		.loc 1 231 0
 204 001e FFF7FEFF 		bl	SPIM_1_ClearFIFO
 205              	.LVL26:
 206 0022 38BD     		pop	{r3, r4, r5, pc}
 207              		.cfi_endproc
 208              	.LFE14:
 209              		.size	WriteByteToAdress, .-WriteByteToAdress
 210              		.section	.text.Set_WireSetup,"ax",%progbits
 211              		.align	2
 212              		.global	Set_WireSetup
 213              		.thumb
 214              		.thumb_func
 215              		.type	Set_WireSetup, %function
 216              	Set_WireSetup:
 217              	.LFB8:
 113:Amplifier.c   ****     //Code to communicate the 2 wire config to the amplifier
 218              		.loc 1 113 0
 219              		.cfi_startproc
ARM GAS  C:\Users\nico_\AppData\Local\Temp\ccFMozQM.s 			page 9


 220              		@ args = 0, pretend = 0, frame = 0
 221              		@ frame_needed = 0, uses_anonymous_args = 0
 222              	.LVL27:
 223 0000 38B5     		push	{r3, r4, r5, lr}
 224              		.cfi_def_cfa_offset 16
 225              		.cfi_offset 3, -16
 226              		.cfi_offset 4, -12
 227              		.cfi_offset 5, -8
 228              		.cfi_offset 14, -4
 229 0002 0446     		mov	r4, r0
 116:Amplifier.c   ****     
 230              		.loc 1 116 0
 231 0004 0020     		movs	r0, #0
 232              	.LVL28:
 233 0006 FFF7FEFF 		bl	ReadByteFromAdress
 234              	.LVL29:
 235 000a 0546     		mov	r5, r0
 236              	.LVL30:
 118:Amplifier.c   ****     {
 237              		.loc 1 118 0
 238 000c 2CB9     		cbnz	r4, .L13
 121:Amplifier.c   ****         //Write new config setup to amplifier.
 239              		.loc 1 121 0
 240 000e 00F0F705 		and	r5, r0, #247
 241              	.LVL31:
 123:Amplifier.c   ****     }
 242              		.loc 1 123 0
 243 0012 2946     		mov	r1, r5
 244 0014 8020     		movs	r0, #128
 245 0016 FFF7FEFF 		bl	WriteByteToAdress
 246              	.LVL32:
 247              	.L13:
 125:Amplifier.c   ****     {
 248              		.loc 1 125 0
 249 001a 102C     		cmp	r4, #16
 250 001c 05D1     		bne	.L12
 128:Amplifier.c   ****         //Write new config setup to amplifier.
 251              		.loc 1 128 0
 252 001e 45F00801 		orr	r1, r5, #8
 253              	.LVL33:
 130:Amplifier.c   ****     }
 254              		.loc 1 130 0
 255 0022 C9B2     		uxtb	r1, r1
 256 0024 8020     		movs	r0, #128
 257 0026 FFF7FEFF 		bl	WriteByteToAdress
 258              	.LVL34:
 259              	.L12:
 260 002a 38BD     		pop	{r3, r4, r5, pc}
 261              		.cfi_endproc
 262              	.LFE8:
 263              		.size	Set_WireSetup, .-Set_WireSetup
 264              		.section	.text.Set_FilterSetup,"ax",%progbits
 265              		.align	2
 266              		.global	Set_FilterSetup
 267              		.thumb
 268              		.thumb_func
 269              		.type	Set_FilterSetup, %function
ARM GAS  C:\Users\nico_\AppData\Local\Temp\ccFMozQM.s 			page 10


 270              	Set_FilterSetup:
 271              	.LFB9:
 140:Amplifier.c   ****     char config = ReadByteFromAdress(READ_CONFIG_REG_ADRESS);
 272              		.loc 1 140 0
 273              		.cfi_startproc
 274              		@ args = 0, pretend = 0, frame = 0
 275              		@ frame_needed = 0, uses_anonymous_args = 0
 276              	.LVL35:
 277 0000 38B5     		push	{r3, r4, r5, lr}
 278              		.cfi_def_cfa_offset 16
 279              		.cfi_offset 3, -16
 280              		.cfi_offset 4, -12
 281              		.cfi_offset 5, -8
 282              		.cfi_offset 14, -4
 283 0002 0446     		mov	r4, r0
 141:Amplifier.c   ****     if(filterconfig == FILTER_50HZ)
 284              		.loc 1 141 0
 285 0004 0020     		movs	r0, #0
 286              	.LVL36:
 287 0006 FFF7FEFF 		bl	ReadByteFromAdress
 288              	.LVL37:
 289 000a 0546     		mov	r5, r0
 290              	.LVL38:
 142:Amplifier.c   ****     {
 291              		.loc 1 142 0
 292 000c 012C     		cmp	r4, #1
 293 000e 06D1     		bne	.L17
 144:Amplifier.c   ****        WriteByteToAdress(WRITE_CONFIG_REG_ADRESS,config); 
 294              		.loc 1 144 0
 295 0010 40F00105 		orr	r5, r0, #1
 296 0014 EDB2     		uxtb	r5, r5
 297              	.LVL39:
 145:Amplifier.c   ****     }
 298              		.loc 1 145 0
 299 0016 2946     		mov	r1, r5
 300 0018 8020     		movs	r0, #128
 301 001a FFF7FEFF 		bl	WriteByteToAdress
 302              	.LVL40:
 303              	.L17:
 147:Amplifier.c   ****     {
 304              		.loc 1 147 0
 305 001e 24B9     		cbnz	r4, .L16
 306              	.LVL41:
 150:Amplifier.c   ****     }
 307              		.loc 1 150 0
 308 0020 05F0FE01 		and	r1, r5, #254
 309 0024 8020     		movs	r0, #128
 310 0026 FFF7FEFF 		bl	WriteByteToAdress
 311              	.LVL42:
 312              	.L16:
 313 002a 38BD     		pop	{r3, r4, r5, pc}
 314              		.cfi_endproc
 315              	.LFE9:
 316              		.size	Set_FilterSetup, .-Set_FilterSetup
 317              		.section	.text.Set_ConverionMode,"ax",%progbits
 318              		.align	2
 319              		.global	Set_ConverionMode
ARM GAS  C:\Users\nico_\AppData\Local\Temp\ccFMozQM.s 			page 11


 320              		.thumb
 321              		.thumb_func
 322              		.type	Set_ConverionMode, %function
 323              	Set_ConverionMode:
 324              	.LFB10:
 158:Amplifier.c   ****     
 325              		.loc 1 158 0
 326              		.cfi_startproc
 327              		@ args = 0, pretend = 0, frame = 0
 328              		@ frame_needed = 0, uses_anonymous_args = 0
 329              	.LVL43:
 330 0000 38B5     		push	{r3, r4, r5, lr}
 331              		.cfi_def_cfa_offset 16
 332              		.cfi_offset 3, -16
 333              		.cfi_offset 4, -12
 334              		.cfi_offset 5, -8
 335              		.cfi_offset 14, -4
 336 0002 0446     		mov	r4, r0
 160:Amplifier.c   ****     if(conversionmode == CONVERSIONMODE_AUTO)
 337              		.loc 1 160 0
 338 0004 0020     		movs	r0, #0
 339              	.LVL44:
 340 0006 FFF7FEFF 		bl	ReadByteFromAdress
 341              	.LVL45:
 342 000a 0546     		mov	r5, r0
 343              	.LVL46:
 161:Amplifier.c   ****     {
 344              		.loc 1 161 0
 345 000c 402C     		cmp	r4, #64
 346 000e 06D1     		bne	.L21
 163:Amplifier.c   ****         WriteByteToAdress(WRITE_CONFIG_REG_ADRESS,config);
 347              		.loc 1 163 0
 348 0010 40F04005 		orr	r5, r0, #64
 349 0014 EDB2     		uxtb	r5, r5
 350              	.LVL47:
 164:Amplifier.c   ****     }
 351              		.loc 1 164 0
 352 0016 2946     		mov	r1, r5
 353 0018 8020     		movs	r0, #128
 354 001a FFF7FEFF 		bl	WriteByteToAdress
 355              	.LVL48:
 356              	.L21:
 166:Amplifier.c   ****     {
 357              		.loc 1 166 0
 358 001e 24B9     		cbnz	r4, .L20
 359              	.LVL49:
 169:Amplifier.c   ****     }
 360              		.loc 1 169 0
 361 0020 05F0BF01 		and	r1, r5, #191
 362 0024 8020     		movs	r0, #128
 363 0026 FFF7FEFF 		bl	WriteByteToAdress
 364              	.LVL50:
 365              	.L20:
 366 002a 38BD     		pop	{r3, r4, r5, pc}
 367              		.cfi_endproc
 368              	.LFE10:
 369              		.size	Set_ConverionMode, .-Set_ConverionMode
ARM GAS  C:\Users\nico_\AppData\Local\Temp\ccFMozQM.s 			page 12


 370              		.section	.text.Set_VBIAS,"ax",%progbits
 371              		.align	2
 372              		.global	Set_VBIAS
 373              		.thumb
 374              		.thumb_func
 375              		.type	Set_VBIAS, %function
 376              	Set_VBIAS:
 377              	.LFB11:
 176:Amplifier.c   ****     char config = ReadByteFromAdress(READ_CONFIG_REG_ADRESS);
 378              		.loc 1 176 0
 379              		.cfi_startproc
 380              		@ args = 0, pretend = 0, frame = 0
 381              		@ frame_needed = 0, uses_anonymous_args = 0
 382              	.LVL51:
 383 0000 38B5     		push	{r3, r4, r5, lr}
 384              		.cfi_def_cfa_offset 16
 385              		.cfi_offset 3, -16
 386              		.cfi_offset 4, -12
 387              		.cfi_offset 5, -8
 388              		.cfi_offset 14, -4
 389 0002 0446     		mov	r4, r0
 177:Amplifier.c   ****     if(vbias_mode == VBIAS_ON)
 390              		.loc 1 177 0
 391 0004 0020     		movs	r0, #0
 392              	.LVL52:
 393 0006 FFF7FEFF 		bl	ReadByteFromAdress
 394              	.LVL53:
 395 000a 0546     		mov	r5, r0
 396              	.LVL54:
 178:Amplifier.c   ****     {
 397              		.loc 1 178 0
 398 000c 802C     		cmp	r4, #128
 399 000e 06D1     		bne	.L25
 180:Amplifier.c   ****         WriteByteToAdress(WRITE_CONFIG_REG_ADRESS,config);        
 400              		.loc 1 180 0
 401 0010 40F04005 		orr	r5, r0, #64
 402 0014 EDB2     		uxtb	r5, r5
 403              	.LVL55:
 181:Amplifier.c   ****     }
 404              		.loc 1 181 0
 405 0016 2946     		mov	r1, r5
 406 0018 8020     		movs	r0, #128
 407 001a FFF7FEFF 		bl	WriteByteToAdress
 408              	.LVL56:
 409              	.L25:
 183:Amplifier.c   ****     {
 410              		.loc 1 183 0
 411 001e 24B9     		cbnz	r4, .L24
 412              	.LVL57:
 186:Amplifier.c   ****     }
 413              		.loc 1 186 0
 414 0020 05F07F01 		and	r1, r5, #127
 415 0024 8020     		movs	r0, #128
 416 0026 FFF7FEFF 		bl	WriteByteToAdress
 417              	.LVL58:
 418              	.L24:
 419 002a 38BD     		pop	{r3, r4, r5, pc}
ARM GAS  C:\Users\nico_\AppData\Local\Temp\ccFMozQM.s 			page 13


 420              		.cfi_endproc
 421              	.LFE11:
 422              		.size	Set_VBIAS, .-Set_VBIAS
 423              		.section	.text.Amplifier_Shutdown,"ax",%progbits
 424              		.align	2
 425              		.global	Amplifier_Shutdown
 426              		.thumb
 427              		.thumb_func
 428              		.type	Amplifier_Shutdown, %function
 429              	Amplifier_Shutdown:
 430              	.LFB4:
  69:Amplifier.c   ****     Set_ConverionMode(CONVERSIONMODE_OFF);
 431              		.loc 1 69 0
 432              		.cfi_startproc
 433              		@ args = 0, pretend = 0, frame = 0
 434              		@ frame_needed = 0, uses_anonymous_args = 0
 435 0000 08B5     		push	{r3, lr}
 436              		.cfi_def_cfa_offset 8
 437              		.cfi_offset 3, -8
 438              		.cfi_offset 14, -4
  70:Amplifier.c   ****     Set_VBIAS(VBIAS_OFF);
 439              		.loc 1 70 0
 440 0002 0020     		movs	r0, #0
 441 0004 FFF7FEFF 		bl	Set_ConverionMode
 442              	.LVL59:
  71:Amplifier.c   ****     
 443              		.loc 1 71 0
 444 0008 0020     		movs	r0, #0
 445 000a FFF7FEFF 		bl	Set_VBIAS
 446              	.LVL60:
  73:Amplifier.c   ****     SPIM_1_Stop();
 447              		.loc 1 73 0
 448 000e FFF7FEFF 		bl	Clock_SPI_Stop
 449              	.LVL61:
  74:Amplifier.c   ****     
 450              		.loc 1 74 0
 451 0012 FFF7FEFF 		bl	SPIM_1_Stop
 452              	.LVL62:
 453 0016 08BD     		pop	{r3, pc}
 454              		.cfi_endproc
 455              	.LFE4:
 456              		.size	Amplifier_Shutdown, .-Amplifier_Shutdown
 457              		.section	.text.Clear_Fault,"ax",%progbits
 458              		.align	2
 459              		.global	Clear_Fault
 460              		.thumb
 461              		.thumb_func
 462              		.type	Clear_Fault, %function
 463              	Clear_Fault:
 464              	.LFB12:
 194:Amplifier.c   ****     char config = ReadByteFromAdress(READ_CONFIG_REG_ADRESS);
 465              		.loc 1 194 0
 466              		.cfi_startproc
 467              		@ args = 0, pretend = 0, frame = 0
 468              		@ frame_needed = 0, uses_anonymous_args = 0
 469 0000 08B5     		push	{r3, lr}
 470              		.cfi_def_cfa_offset 8
ARM GAS  C:\Users\nico_\AppData\Local\Temp\ccFMozQM.s 			page 14


 471              		.cfi_offset 3, -8
 472              		.cfi_offset 14, -4
 195:Amplifier.c   ****     config |= CLEAR_FAULTBIT;
 473              		.loc 1 195 0
 474 0002 0020     		movs	r0, #0
 475 0004 FFF7FEFF 		bl	ReadByteFromAdress
 476              	.LVL63:
 196:Amplifier.c   ****     WriteByteToAdress(WRITE_CONFIG_REG_ADRESS,config);
 477              		.loc 1 196 0
 478 0008 40F00201 		orr	r1, r0, #2
 479              	.LVL64:
 197:Amplifier.c   **** }
 480              		.loc 1 197 0
 481 000c C9B2     		uxtb	r1, r1
 482 000e 8020     		movs	r0, #128
 483 0010 FFF7FEFF 		bl	WriteByteToAdress
 484              	.LVL65:
 485 0014 08BD     		pop	{r3, pc}
 486              		.cfi_endproc
 487              	.LFE12:
 488              		.size	Clear_Fault, .-Clear_Fault
 489 0016 00BF     		.section	.text.MAX31865_Setup,"ax",%progbits
 490              		.align	2
 491              		.global	MAX31865_Setup
 492              		.thumb
 493              		.thumb_func
 494              		.type	MAX31865_Setup, %function
 495              	MAX31865_Setup:
 496              	.LFB2:
  42:Amplifier.c   ****     Set_WireSetup(TWO_OR_FOUR_WIRECONFIG);
 497              		.loc 1 42 0
 498              		.cfi_startproc
 499              		@ args = 0, pretend = 0, frame = 0
 500              		@ frame_needed = 0, uses_anonymous_args = 0
 501 0000 08B5     		push	{r3, lr}
 502              		.cfi_def_cfa_offset 8
 503              		.cfi_offset 3, -8
 504              		.cfi_offset 14, -4
  43:Amplifier.c   ****     Set_FilterSetup(FILTER_50HZ);
 505              		.loc 1 43 0
 506 0002 0020     		movs	r0, #0
 507 0004 FFF7FEFF 		bl	Set_WireSetup
 508              	.LVL66:
  44:Amplifier.c   ****     Set_VBIAS(VBIAS_ON);
 509              		.loc 1 44 0
 510 0008 0120     		movs	r0, #1
 511 000a FFF7FEFF 		bl	Set_FilterSetup
 512              	.LVL67:
  45:Amplifier.c   ****     Clear_Fault();
 513              		.loc 1 45 0
 514 000e 8020     		movs	r0, #128
 515 0010 FFF7FEFF 		bl	Set_VBIAS
 516              	.LVL68:
  46:Amplifier.c   **** }
 517              		.loc 1 46 0
 518 0014 FFF7FEFF 		bl	Clear_Fault
 519              	.LVL69:
ARM GAS  C:\Users\nico_\AppData\Local\Temp\ccFMozQM.s 			page 15


 520 0018 08BD     		pop	{r3, pc}
 521              		.cfi_endproc
 522              	.LFE2:
 523              		.size	MAX31865_Setup, .-MAX31865_Setup
 524 001a 00BF     		.section	.text.Amplifier_Setup,"ax",%progbits
 525              		.align	2
 526              		.global	Amplifier_Setup
 527              		.thumb
 528              		.thumb_func
 529              		.type	Amplifier_Setup, %function
 530              	Amplifier_Setup:
 531              	.LFB1:
  34:Amplifier.c   ****     SPI_Setup();
 532              		.loc 1 34 0
 533              		.cfi_startproc
 534              		@ args = 0, pretend = 0, frame = 0
 535              		@ frame_needed = 0, uses_anonymous_args = 0
 536 0000 08B5     		push	{r3, lr}
 537              		.cfi_def_cfa_offset 8
 538              		.cfi_offset 3, -8
 539              		.cfi_offset 14, -4
  35:Amplifier.c   ****     MAX31865_Setup();
 540              		.loc 1 35 0
 541 0002 FFF7FEFF 		bl	SPI_Setup
 542              	.LVL70:
  36:Amplifier.c   ****     
 543              		.loc 1 36 0
 544 0006 FFF7FEFF 		bl	MAX31865_Setup
 545              	.LVL71:
 546 000a 08BD     		pop	{r3, pc}
 547              		.cfi_endproc
 548              	.LFE1:
 549              		.size	Amplifier_Setup, .-Amplifier_Setup
 550              		.section	.text.Amplifier_Startup,"ax",%progbits
 551              		.align	2
 552              		.global	Amplifier_Startup
 553              		.thumb
 554              		.thumb_func
 555              		.type	Amplifier_Startup, %function
 556              	Amplifier_Startup:
 557              	.LFB5:
  82:Amplifier.c   ****     //Starts SPI again
 558              		.loc 1 82 0
 559              		.cfi_startproc
 560              		@ args = 0, pretend = 0, frame = 0
 561              		@ frame_needed = 0, uses_anonymous_args = 0
 562 0000 08B5     		push	{r3, lr}
 563              		.cfi_def_cfa_offset 8
 564              		.cfi_offset 3, -8
 565              		.cfi_offset 14, -4
  84:Amplifier.c   ****     SPI_Setup();
 566              		.loc 1 84 0
 567 0002 FFF7FEFF 		bl	Clock_SPI_Start
 568              	.LVL72:
  85:Amplifier.c   ****     
 569              		.loc 1 85 0
 570 0006 FFF7FEFF 		bl	SPI_Setup
ARM GAS  C:\Users\nico_\AppData\Local\Temp\ccFMozQM.s 			page 16


 571              	.LVL73:
  87:Amplifier.c   ****     Set_ConverionMode(CONVERSIONMODE_AUTO);
 572              		.loc 1 87 0
 573 000a 8020     		movs	r0, #128
 574 000c FFF7FEFF 		bl	Set_VBIAS
 575              	.LVL74:
  88:Amplifier.c   ****     Clear_Fault();
 576              		.loc 1 88 0
 577 0010 4020     		movs	r0, #64
 578 0012 FFF7FEFF 		bl	Set_ConverionMode
 579              	.LVL75:
  89:Amplifier.c   ****     
 580              		.loc 1 89 0
 581 0016 FFF7FEFF 		bl	Clear_Fault
 582              	.LVL76:
 583 001a 08BD     		pop	{r3, pc}
 584              		.cfi_endproc
 585              	.LFE5:
 586              		.size	Amplifier_Startup, .-Amplifier_Startup
 587              		.comm	rtd_ratio,2,2
 588              		.text
 589              	.Letext0:
 590              		.file 2 "c:\\program files (x86)\\cypress\\psoc creator\\4.4\\psoc creator\\import\\gnu\\arm\\5.4.
 591              		.file 3 "c:\\program files (x86)\\cypress\\psoc creator\\4.4\\psoc creator\\import\\gnu\\arm\\5.4.
 592              		.file 4 "Generated_Source\\PSoC5/cytypes.h"
 593              		.file 5 "Generated_Source\\PSoC5/Clock_SPI.h"
 594              		.file 6 "Generated_Source\\PSoC5/SPIM_1.h"
 595              		.file 7 "Generated_Source\\PSoC5/SS.h"