ARM GAS  C:\Users\nico_\AppData\Local\Temp\ccwZ9HPe.s 			page 1


   1              		.syntax unified
   2              		.cpu cortex-m3
   3              		.fpu softvfp
   4              		.eabi_attribute 20, 1
   5              		.eabi_attribute 21, 1
   6              		.eabi_attribute 23, 3
   7              		.eabi_attribute 24, 1
   8              		.eabi_attribute 25, 1
   9              		.eabi_attribute 26, 1
  10              		.eabi_attribute 30, 1
  11              		.eabi_attribute 34, 1
  12              		.eabi_attribute 18, 4
  13              		.thumb
  14              		.syntax unified
  15              		.file	"ClockCounter_test.c"
  16              		.text
  17              	.Ltext0:
  18              		.cfi_sections	.debug_frame
  19              		.section	.text.ISR_CLOCK_test_handler,"ax",%progbits
  20              		.align	2
  21              		.global	ISR_CLOCK_test_handler
  22              		.thumb
  23              		.thumb_func
  24              		.type	ISR_CLOCK_test_handler, %function
  25              	ISR_CLOCK_test_handler:
  26              	.LFB1:
  27              		.file 1 "ClockCounter_test.c"
   1:ClockCounter_test.c **** /* ========================================
   2:ClockCounter_test.c ****  *
   3:ClockCounter_test.c ****  * Copyright YOUR COMPANY, THE YEAR
   4:ClockCounter_test.c ****  * All Rights Reserved
   5:ClockCounter_test.c ****  * UNPUBLISHED, LICENSED SOFTWARE.
   6:ClockCounter_test.c ****  *
   7:ClockCounter_test.c ****  * CONFIDENTIAL AND PROPRIETARY INFORMATION
   8:ClockCounter_test.c ****  * WHICH IS THE PROPERTY OF your company.
   9:ClockCounter_test.c ****  *
  10:ClockCounter_test.c ****  * ========================================
  11:ClockCounter_test.c **** */
  12:ClockCounter_test.c **** #include "ClockCounter_test.h"
  13:ClockCounter_test.c **** 
  14:ClockCounter_test.c **** void ClockCounter_test_run()
  15:ClockCounter_test.c **** {  
  16:ClockCounter_test.c ****     UART_1_Start();
  17:ClockCounter_test.c ****     UART_1_PutString("CLock counter test started \r\n");
  18:ClockCounter_test.c ****     /*Start interrupts*/
  19:ClockCounter_test.c ****     isr_clock_StartEx(ISR_CLOCK_test_handler); 
  20:ClockCounter_test.c ****     Temp_sample_counter_Start();
  21:ClockCounter_test.c ****     
  22:ClockCounter_test.c ****     for(;;)
  23:ClockCounter_test.c ****     {
  24:ClockCounter_test.c ****     }
  25:ClockCounter_test.c **** }
  26:ClockCounter_test.c **** 
  27:ClockCounter_test.c **** CY_ISR(ISR_CLOCK_test_handler)
  28:ClockCounter_test.c **** {
  28              		.loc 1 28 0
  29              		.cfi_startproc
ARM GAS  C:\Users\nico_\AppData\Local\Temp\ccwZ9HPe.s 			page 2


  30              		@ args = 0, pretend = 0, frame = 0
  31              		@ frame_needed = 0, uses_anonymous_args = 0
  32 0000 08B5     		push	{r3, lr}
  33              		.cfi_def_cfa_offset 8
  34              		.cfi_offset 3, -8
  35              		.cfi_offset 14, -4
  29:ClockCounter_test.c ****     UART_1_PutString("Clock counter triggered \r\n");
  36              		.loc 1 29 0
  37 0002 0348     		ldr	r0, .L3
  38 0004 FFF7FEFF 		bl	UART_1_PutString
  39              	.LVL0:
  30:ClockCounter_test.c ****     Temp_sample_counter_ReadStatusRegister();
  40              		.loc 1 30 0
  41 0008 FFF7FEFF 		bl	Temp_sample_counter_ReadStatusRegister
  42              	.LVL1:
  43 000c 08BD     		pop	{r3, pc}
  44              	.L4:
  45 000e 00BF     		.align	2
  46              	.L3:
  47 0010 00000000 		.word	.LC0
  48              		.cfi_endproc
  49              	.LFE1:
  50              		.size	ISR_CLOCK_test_handler, .-ISR_CLOCK_test_handler
  51              		.section	.text.ClockCounter_test_run,"ax",%progbits
  52              		.align	2
  53              		.global	ClockCounter_test_run
  54              		.thumb
  55              		.thumb_func
  56              		.type	ClockCounter_test_run, %function
  57              	ClockCounter_test_run:
  58              	.LFB0:
  15:ClockCounter_test.c ****     UART_1_Start();
  59              		.loc 1 15 0
  60              		.cfi_startproc
  61              		@ Volatile: function does not return.
  62              		@ args = 0, pretend = 0, frame = 0
  63              		@ frame_needed = 0, uses_anonymous_args = 0
  64 0000 08B5     		push	{r3, lr}
  65              		.cfi_def_cfa_offset 8
  66              		.cfi_offset 3, -8
  67              		.cfi_offset 14, -4
  16:ClockCounter_test.c ****     UART_1_PutString("CLock counter test started \r\n");
  68              		.loc 1 16 0
  69 0002 FFF7FEFF 		bl	UART_1_Start
  70              	.LVL2:
  17:ClockCounter_test.c ****     /*Start interrupts*/
  71              		.loc 1 17 0
  72 0006 0448     		ldr	r0, .L8
  73 0008 FFF7FEFF 		bl	UART_1_PutString
  74              	.LVL3:
  19:ClockCounter_test.c ****     Temp_sample_counter_Start();
  75              		.loc 1 19 0
  76 000c 0348     		ldr	r0, .L8+4
  77 000e FFF7FEFF 		bl	isr_clock_StartEx
  78              	.LVL4:
  20:ClockCounter_test.c ****     
  79              		.loc 1 20 0
ARM GAS  C:\Users\nico_\AppData\Local\Temp\ccwZ9HPe.s 			page 3


  80 0012 FFF7FEFF 		bl	Temp_sample_counter_Start
  81              	.LVL5:
  82              	.L6:
  83 0016 FEE7     		b	.L6
  84              	.L9:
  85              		.align	2
  86              	.L8:
  87 0018 1C000000 		.word	.LC1
  88 001c 00000000 		.word	ISR_CLOCK_test_handler
  89              		.cfi_endproc
  90              	.LFE0:
  91              		.size	ClockCounter_test_run, .-ClockCounter_test_run
  92              		.section	.rodata.str1.4,"aMS",%progbits,1
  93              		.align	2
  94              	.LC0:
  95 0000 436C6F63 		.ascii	"Clock counter triggered \015\012\000"
  95      6B20636F 
  95      756E7465 
  95      72207472 
  95      69676765 
  96 001b 00       		.space	1
  97              	.LC1:
  98 001c 434C6F63 		.ascii	"CLock counter test started \015\012\000"
  98      6B20636F 
  98      756E7465 
  98      72207465 
  98      73742073 
  99              		.text
 100              	.Letext0:
 101              		.file 2 "Generated_Source\\PSoC5/UART_1.h"
 102              		.file 3 "Generated_Source\\PSoC5/Temp_sample_counter.h"
 103              		.file 4 "Generated_Source\\PSoC5/isr_clock.h"