ARM GAS  C:\Users\nico_\AppData\Local\Temp\ccZItsQZ.s 			page 1


   1              		.syntax unified
   2              		.cpu cortex-m3
   3              		.fpu softvfp
   4              		.eabi_attribute 20, 1
   5              		.eabi_attribute 21, 1
   6              		.eabi_attribute 23, 3
   7              		.eabi_attribute 24, 1
   8              		.eabi_attribute 25, 1
   9              		.eabi_attribute 26, 1
  10              		.eabi_attribute 30, 1
  11              		.eabi_attribute 34, 1
  12              		.eabi_attribute 18, 4
  13              		.thumb
  14              		.syntax unified
  15              		.file	"LED.c"
  16              		.text
  17              	.Ltext0:
  18              		.cfi_sections	.debug_frame
  19              		.section	.text.Turn_ON,"ax",%progbits
  20              		.align	2
  21              		.global	Turn_ON
  22              		.thumb
  23              		.thumb_func
  24              		.type	Turn_ON, %function
  25              	Turn_ON:
  26              	.LFB0:
  27              		.file 1 "LED.c"
   1:LED.c         **** /* ========================================
   2:LED.c         ****  *
   3:LED.c         ****  * Copyright YOUR COMPANY, THE YEAR
   4:LED.c         ****  * All Rights Reserved
   5:LED.c         ****  * UNPUBLISHED, LICENSED SOFTWARE.
   6:LED.c         ****  *
   7:LED.c         ****  * CONFIDENTIAL AND PROPRIETARY INFORMATION
   8:LED.c         ****  * WHICH IS THE PROPERTY OF your company.
   9:LED.c         ****  *
  10:LED.c         ****  * ========================================
  11:LED.c         **** */
  12:LED.c         **** #include "LED.h"
  13:LED.c         **** 
  14:LED.c         **** void Turn_ON()
  15:LED.c         **** {
  28              		.loc 1 15 0
  29              		.cfi_startproc
  30              		@ args = 0, pretend = 0, frame = 0
  31              		@ frame_needed = 0, uses_anonymous_args = 0
  32 0000 08B5     		push	{r3, lr}
  33              		.cfi_def_cfa_offset 8
  34              		.cfi_offset 3, -8
  35              		.cfi_offset 14, -4
  16:LED.c         ****     LED_pin_Write(255);
  36              		.loc 1 16 0
  37 0002 FF20     		movs	r0, #255
  38 0004 FFF7FEFF 		bl	LED_pin_Write
  39              	.LVL0:
  40 0008 08BD     		pop	{r3, pc}
  41              		.cfi_endproc
ARM GAS  C:\Users\nico_\AppData\Local\Temp\ccZItsQZ.s 			page 2


  42              	.LFE0:
  43              		.size	Turn_ON, .-Turn_ON
  44 000a 00BF     		.section	.text.Turn_OFF,"ax",%progbits
  45              		.align	2
  46              		.global	Turn_OFF
  47              		.thumb
  48              		.thumb_func
  49              		.type	Turn_OFF, %function
  50              	Turn_OFF:
  51              	.LFB1:
  17:LED.c         **** }
  18:LED.c         **** void Turn_OFF()
  19:LED.c         **** {
  52              		.loc 1 19 0
  53              		.cfi_startproc
  54              		@ args = 0, pretend = 0, frame = 0
  55              		@ frame_needed = 0, uses_anonymous_args = 0
  56 0000 08B5     		push	{r3, lr}
  57              		.cfi_def_cfa_offset 8
  58              		.cfi_offset 3, -8
  59              		.cfi_offset 14, -4
  20:LED.c         ****     LED_pin_Write(0);
  60              		.loc 1 20 0
  61 0002 0020     		movs	r0, #0
  62 0004 FFF7FEFF 		bl	LED_pin_Write
  63              	.LVL1:
  64 0008 08BD     		pop	{r3, pc}
  65              		.cfi_endproc
  66              	.LFE1:
  67              		.size	Turn_OFF, .-Turn_OFF
  68 000a 00BF     		.text
  69              	.Letext0:
  70              		.file 2 "Generated_Source\\PSoC5/LED_pin.h"