ARM GAS  C:\Users\nico_\AppData\Local\Temp\ccqLSN9n.s 			page 1


   1              		.syntax unified
   2              		.cpu cortex-m3
   3              		.fpu softvfp
   4              		.eabi_attribute 20, 1
   5              		.eabi_attribute 21, 1
   6              		.eabi_attribute 23, 3
   7              		.eabi_attribute 24, 1
   8              		.eabi_attribute 25, 1
   9              		.eabi_attribute 26, 1
  10              		.eabi_attribute 30, 1
  11              		.eabi_attribute 34, 1
  12              		.eabi_attribute 18, 4
  13              		.thumb
  14              		.syntax unified
  15              		.file	"LEDUnitTest.c"
  16              		.text
  17              	.Ltext0:
  18              		.cfi_sections	.debug_frame
  19              		.section	.text.LED_TURNON_CALLMETHOD_4_6VOUTPUT,"ax",%progbits
  20              		.align	2
  21              		.global	LED_TURNON_CALLMETHOD_4_6VOUTPUT
  22              		.thumb
  23              		.thumb_func
  24              		.type	LED_TURNON_CALLMETHOD_4_6VOUTPUT, %function
  25              	LED_TURNON_CALLMETHOD_4_6VOUTPUT:
  26              	.LFB0:
  27              		.file 1 "LEDUnitTest.c"
   1:LEDUnitTest.c **** /* ========================================
   2:LEDUnitTest.c ****  *
   3:LEDUnitTest.c ****  * Copyright YOUR COMPANY, THE YEAR
   4:LEDUnitTest.c ****  * All Rights Reserved
   5:LEDUnitTest.c ****  * UNPUBLISHED, LICENSED SOFTWARE.
   6:LEDUnitTest.c ****  *
   7:LEDUnitTest.c ****  * CONFIDENTIAL AND PROPRIETARY INFORMATION
   8:LEDUnitTest.c ****  * WHICH IS THE PROPERTY OF your company.
   9:LEDUnitTest.c ****  *
  10:LEDUnitTest.c ****  * ========================================
  11:LEDUnitTest.c **** */
  12:LEDUnitTest.c **** #include "LEDUnitTest.h"
  13:LEDUnitTest.c **** 
  14:LEDUnitTest.c **** void LED_TURNON_CALLMETHOD_4_6VOUTPUT()
  15:LEDUnitTest.c **** {
  28              		.loc 1 15 0
  29              		.cfi_startproc
  30              		@ args = 0, pretend = 0, frame = 0
  31              		@ frame_needed = 0, uses_anonymous_args = 0
  32 0000 08B5     		push	{r3, lr}
  33              		.cfi_def_cfa_offset 8
  34              		.cfi_offset 3, -8
  35              		.cfi_offset 14, -4
  16:LEDUnitTest.c ****     Turn_ON();
  36              		.loc 1 16 0
  37 0002 FFF7FEFF 		bl	Turn_ON
  38              	.LVL0:
  39 0006 08BD     		pop	{r3, pc}
  40              		.cfi_endproc
  41              	.LFE0:
ARM GAS  C:\Users\nico_\AppData\Local\Temp\ccqLSN9n.s 			page 2


  42              		.size	LED_TURNON_CALLMETHOD_4_6VOUTPUT, .-LED_TURNON_CALLMETHOD_4_6VOUTPUT
  43              		.section	.text.LED_TURNOFF_CALLMETHOD_4_6VOUTPUT,"ax",%progbits
  44              		.align	2
  45              		.global	LED_TURNOFF_CALLMETHOD_4_6VOUTPUT
  46              		.thumb
  47              		.thumb_func
  48              		.type	LED_TURNOFF_CALLMETHOD_4_6VOUTPUT, %function
  49              	LED_TURNOFF_CALLMETHOD_4_6VOUTPUT:
  50              	.LFB1:
  17:LEDUnitTest.c **** }
  18:LEDUnitTest.c **** 
  19:LEDUnitTest.c **** void LED_TURNOFF_CALLMETHOD_4_6VOUTPUT()
  20:LEDUnitTest.c **** {
  51              		.loc 1 20 0
  52              		.cfi_startproc
  53              		@ args = 0, pretend = 0, frame = 0
  54              		@ frame_needed = 0, uses_anonymous_args = 0
  55 0000 08B5     		push	{r3, lr}
  56              		.cfi_def_cfa_offset 8
  57              		.cfi_offset 3, -8
  58              		.cfi_offset 14, -4
  21:LEDUnitTest.c ****     Turn_ON();
  59              		.loc 1 21 0
  60 0002 FFF7FEFF 		bl	Turn_ON
  61              	.LVL1:
  22:LEDUnitTest.c ****     CyDelay(100);
  62              		.loc 1 22 0
  63 0006 6420     		movs	r0, #100
  64 0008 FFF7FEFF 		bl	CyDelay
  65              	.LVL2:
  23:LEDUnitTest.c ****     Turn_OFF();
  66              		.loc 1 23 0
  67 000c FFF7FEFF 		bl	Turn_OFF
  68              	.LVL3:
  69 0010 08BD     		pop	{r3, pc}
  70              		.cfi_endproc
  71              	.LFE1:
  72              		.size	LED_TURNOFF_CALLMETHOD_4_6VOUTPUT, .-LED_TURNOFF_CALLMETHOD_4_6VOUTPUT
  73 0012 00BF     		.text
  74              	.Letext0:
  75              		.file 2 "LED.h"
  76              		.file 3 "Generated_Source\\PSoC5/CyLib.h"