ARM GAS  C:\Users\nico_\AppData\Local\Temp\ccFbrJHd.s 			page 1


   1              		.syntax unified
   2              		.cpu cortex-m3
   3              		.fpu softvfp
   4              		.eabi_attribute 20, 1
   5              		.eabi_attribute 21, 1
   6              		.eabi_attribute 23, 3
   7              		.eabi_attribute 24, 1
   8              		.eabi_attribute 25, 1
   9              		.eabi_attribute 26, 1
  10              		.eabi_attribute 30, 1
  11              		.eabi_attribute 34, 1
  12              		.eabi_attribute 18, 4
  13              		.thumb
  14              		.syntax unified
  15              		.file	"main.c"
  16              		.text
  17              	.Ltext0:
  18              		.cfi_sections	.debug_frame
  19              		.section	.text.ISR_UART_rx_handler,"ax",%progbits
  20              		.align	2
  21              		.global	ISR_UART_rx_handler
  22              		.thumb
  23              		.thumb_func
  24              		.type	ISR_UART_rx_handler, %function
  25              	ISR_UART_rx_handler:
  26              	.LFB65:
  27              		.file 1 "main.c"
   1:main.c        **** /* ========================================
   2:main.c        ****  *
   3:main.c        ****  * Copyright YOUR COMPANY, THE YEAR
   4:main.c        ****  * All Rights Reserved
   5:main.c        ****  * UNPUBLISHED, LICENSED SOFTWARE.
   6:main.c        ****  *
   7:main.c        ****  * CONFIDENTIAL AND PROPRIETARY INFORMATION
   8:main.c        ****  * WHICH IS THE PROPERTY OF your company.
   9:main.c        ****  *
  10:main.c        ****  * ========================================
  11:main.c        **** */
  12:main.c        **** #include "project.h"
  13:main.c        **** #include <stdio.h>
  14:main.c        **** CY_ISR_PROTO(ISR_UART_rx_handler);
  15:main.c        **** void handleByteReceived(uint8_t byteReceived);
  16:main.c        **** 
  17:main.c        **** 
  18:main.c        **** 
  19:main.c        **** int main(void)
  20:main.c        **** {
  21:main.c        ****     /* Enable global interrupts. */
  22:main.c        ****     CyGlobalIntEnable; 
  23:main.c        ****     isr_uart_rx_StartEx(ISR_UART_rx_handler);
  24:main.c        ****     
  25:main.c        ****     
  26:main.c        ****     
  27:main.c        ****     /* Stop pump from starting */
  28:main.c        ****     Enable_pin_Write(255);
  29:main.c        ****       
  30:main.c        ****     
ARM GAS  C:\Users\nico_\AppData\Local\Temp\ccFbrJHd.s 			page 2


  31:main.c        **** 
  32:main.c        ****     for(;;)
  33:main.c        ****     {
  34:main.c        ****         /* Place your application code here. */
  35:main.c        ****     }
  36:main.c        ****  
  37:main.c        **** }
  38:main.c        **** 
  39:main.c        **** 
  40:main.c        **** CY_ISR(ISR_UART_rx_handler)
  41:main.c        **** {
  28              		.loc 1 41 0
  29              		.cfi_startproc
  30              		@ args = 0, pretend = 0, frame = 0
  31              		@ frame_needed = 0, uses_anonymous_args = 0
  32              		@ link register save eliminated.
  33 0000 7047     		bx	lr
  34              		.cfi_endproc
  35              	.LFE65:
  36              		.size	ISR_UART_rx_handler, .-ISR_UART_rx_handler
  37 0002 00BF     		.section	.text.main,"ax",%progbits
  38              		.align	2
  39              		.global	main
  40              		.thumb
  41              		.thumb_func
  42              		.type	main, %function
  43              	main:
  44              	.LFB64:
  20:main.c        ****     /* Enable global interrupts. */
  45              		.loc 1 20 0
  46              		.cfi_startproc
  47              		@ Volatile: function does not return.
  48              		@ args = 0, pretend = 0, frame = 0
  49              		@ frame_needed = 0, uses_anonymous_args = 0
  20:main.c        ****     /* Enable global interrupts. */
  50              		.loc 1 20 0
  51 0000 08B5     		push	{r3, lr}
  52              		.cfi_def_cfa_offset 8
  53              		.cfi_offset 3, -8
  54              		.cfi_offset 14, -4
  22:main.c        ****     isr_uart_rx_StartEx(ISR_UART_rx_handler);
  55              		.loc 1 22 0
  56              		.syntax unified
  57              	@ 22 "main.c" 1
  58 0002 62B6     		CPSIE   i
  59              	@ 0 "" 2
  23:main.c        ****     
  60              		.loc 1 23 0
  61              		.thumb
  62              		.syntax unified
  63 0004 0348     		ldr	r0, .L5
  64 0006 FFF7FEFF 		bl	isr_uart_rx_StartEx
  65              	.LVL0:
  28:main.c        ****       
  66              		.loc 1 28 0
  67 000a FF20     		movs	r0, #255
  68 000c FFF7FEFF 		bl	Enable_pin_Write
ARM GAS  C:\Users\nico_\AppData\Local\Temp\ccFbrJHd.s 			page 3


  69              	.LVL1:
  70              	.L3:
  71 0010 FEE7     		b	.L3
  72              	.L6:
  73 0012 00BF     		.align	2
  74              	.L5:
  75 0014 00000000 		.word	ISR_UART_rx_handler
  76              		.cfi_endproc
  77              	.LFE64:
  78              		.size	main, .-main
  79              		.section	.text.handleByteReceived,"ax",%progbits
  80              		.align	2
  81              		.global	handleByteReceived
  82              		.thumb
  83              		.thumb_func
  84              		.type	handleByteReceived, %function
  85              	handleByteReceived:
  86              	.LFB66:
  42:main.c        ****    
  43:main.c        **** }
  44:main.c        **** void handleByteReceived(uint8_t byteReceived)
  45:main.c        **** {
  87              		.loc 1 45 0
  88              		.cfi_startproc
  89              		@ args = 0, pretend = 0, frame = 0
  90              		@ frame_needed = 0, uses_anonymous_args = 0
  91              		@ link register save eliminated.
  92              	.LVL2:
  93 0000 7047     		bx	lr
  94              		.cfi_endproc
  95              	.LFE66:
  96              		.size	handleByteReceived, .-handleByteReceived
  97 0002 00BF     		.text
  98              	.Letext0:
  99              		.file 2 "c:\\program files (x86)\\cypress\\psoc creator\\4.4\\psoc creator\\import\\gnu\\arm\\5.4.
 100              		.file 3 "c:\\program files (x86)\\cypress\\psoc creator\\4.4\\psoc creator\\import\\gnu\\arm\\5.4.
 101              		.file 4 "Generated_Source\\PSoC5/isr_uart_rx.h"
 102              		.file 5 "Generated_Source\\PSoC5/Enable_pin.h"
 103              		.file 6 "Generated_Source\\PSoC5/core_cm3.h"