ARM GAS  C:\Users\nico_\AppData\Local\Temp\ccOJrCp2.s 			page 1


   1              		.syntax unified
   2              		.cpu cortex-m3
   3              		.fpu softvfp
   4              		.eabi_attribute 20, 1
   5              		.eabi_attribute 21, 1
   6              		.eabi_attribute 23, 3
   7              		.eabi_attribute 24, 1
   8              		.eabi_attribute 25, 1
   9              		.eabi_attribute 26, 1
  10              		.eabi_attribute 30, 1
  11              		.eabi_attribute 34, 1
  12              		.eabi_attribute 18, 4
  13              		.thumb
  14              		.syntax unified
  15              		.file	"PumpCtrlUnitTest.c"
  16              		.text
  17              	.Ltext0:
  18              		.cfi_sections	.debug_frame
  19              		.section	.text.Test_setup,"ax",%progbits
  20              		.align	2
  21              		.global	Test_setup
  22              		.thumb
  23              		.thumb_func
  24              		.type	Test_setup, %function
  25              	Test_setup:
  26              	.LFB1:
  27              		.file 1 "PumpCtrlUnitTest.c"
   1:PumpCtrlUnitTest.c **** /* ========================================
   2:PumpCtrlUnitTest.c ****  *
   3:PumpCtrlUnitTest.c ****  * Copyright YOUR COMPANY, THE YEAR
   4:PumpCtrlUnitTest.c ****  * All Rights Reserved
   5:PumpCtrlUnitTest.c ****  * UNPUBLISHED, LICENSED SOFTWARE.
   6:PumpCtrlUnitTest.c ****  *
   7:PumpCtrlUnitTest.c ****  * CONFIDENTIAL AND PROPRIETARY INFORMATION
   8:PumpCtrlUnitTest.c ****  * WHICH IS THE PROPERTY OF your company.
   9:PumpCtrlUnitTest.c ****  *
  10:PumpCtrlUnitTest.c ****  * ========================================
  11:PumpCtrlUnitTest.c **** */
  12:PumpCtrlUnitTest.c **** #include "PumpCtrlUnitTest.h"
  13:PumpCtrlUnitTest.c **** void Test_setup();
  14:PumpCtrlUnitTest.c **** void setConstantSpeed_SetVoltage1_5_and2_4_SpeedIs47_and_75();
  15:PumpCtrlUnitTest.c **** 
  16:PumpCtrlUnitTest.c **** void Test_setup()
  17:PumpCtrlUnitTest.c **** {
  28              		.loc 1 17 0
  29              		.cfi_startproc
  30              		@ args = 0, pretend = 0, frame = 0
  31              		@ frame_needed = 0, uses_anonymous_args = 0
  32 0000 08B5     		push	{r3, lr}
  33              		.cfi_def_cfa_offset 8
  34              		.cfi_offset 3, -8
  35              		.cfi_offset 14, -4
  18:PumpCtrlUnitTest.c ****     UART_1_Start(); 
  36              		.loc 1 18 0
  37 0002 FFF7FEFF 		bl	UART_1_Start
  38              	.LVL0:
  39 0006 08BD     		pop	{r3, pc}
ARM GAS  C:\Users\nico_\AppData\Local\Temp\ccOJrCp2.s 			page 2


  40              		.cfi_endproc
  41              	.LFE1:
  42              		.size	Test_setup, .-Test_setup
  43              		.section	.text.setConstantSpeed_SetVoltage1_5_and2_4_SpeedIs47_and_75,"ax",%progbits
  44              		.align	2
  45              		.global	setConstantSpeed_SetVoltage1_5_and2_4_SpeedIs47_and_75
  46              		.thumb
  47              		.thumb_func
  48              		.type	setConstantSpeed_SetVoltage1_5_and2_4_SpeedIs47_and_75, %function
  49              	setConstantSpeed_SetVoltage1_5_and2_4_SpeedIs47_and_75:
  50              	.LFB3:
  19:PumpCtrlUnitTest.c **** }
  20:PumpCtrlUnitTest.c **** 
  21:PumpCtrlUnitTest.c **** void Run_Tests()
  22:PumpCtrlUnitTest.c **** {
  23:PumpCtrlUnitTest.c ****     UART_1_Start();
  24:PumpCtrlUnitTest.c ****     setConstantSpeed_SetVoltage1_5_and2_4_SpeedIs47_and_75();
  25:PumpCtrlUnitTest.c **** }
  26:PumpCtrlUnitTest.c **** 
  27:PumpCtrlUnitTest.c **** void setConstantSpeed_SetVoltage1_5_and2_4_SpeedIs47_and_75()
  28:PumpCtrlUnitTest.c **** {
  51              		.loc 1 28 0
  52              		.cfi_startproc
  53              		@ args = 0, pretend = 0, frame = 0
  54              		@ frame_needed = 0, uses_anonymous_args = 0
  55 0000 08B5     		push	{r3, lr}
  56              		.cfi_def_cfa_offset 8
  57              		.cfi_offset 3, -8
  58              		.cfi_offset 14, -4
  29:PumpCtrlUnitTest.c ****     
  30:PumpCtrlUnitTest.c ****     uint8 speed;
  31:PumpCtrlUnitTest.c ****     
  32:PumpCtrlUnitTest.c ****     UART_1_PutString("Speed control voltage set to 1500 mV\r\n");
  59              		.loc 1 32 0
  60 0002 0748     		ldr	r0, .L5
  61 0004 FFF7FEFF 		bl	UART_1_PutString
  62              	.LVL1:
  33:PumpCtrlUnitTest.c ****     Pump_Startup(1500);
  63              		.loc 1 33 0
  64 0008 40F2DC50 		movw	r0, #1500
  65 000c FFF7FEFF 		bl	Pump_Startup
  66              	.LVL2:
  34:PumpCtrlUnitTest.c ****     speed = (1500*256)/(4096*2);;
  35:PumpCtrlUnitTest.c **** //    snprintf(outputBuffer, sizeof(outputBuffer), "Expected result is 46: result = %u;\r\n",speed)
  36:PumpCtrlUnitTest.c **** //    UART_1_PutString(outputBuffer);
  37:PumpCtrlUnitTest.c **** //    
  38:PumpCtrlUnitTest.c ****     UART_1_PutString("Speed control voltage set to 24000 mV\r\n");
  67              		.loc 1 38 0
  68 0010 0448     		ldr	r0, .L5+4
  69 0012 FFF7FEFF 		bl	UART_1_PutString
  70              	.LVL3:
  39:PumpCtrlUnitTest.c ****     Pump_Startup(1500);
  71              		.loc 1 39 0
  72 0016 40F2DC50 		movw	r0, #1500
  73 001a FFF7FEFF 		bl	Pump_Startup
  74              	.LVL4:
  75 001e 08BD     		pop	{r3, pc}
ARM GAS  C:\Users\nico_\AppData\Local\Temp\ccOJrCp2.s 			page 3


  76              	.L6:
  77              		.align	2
  78              	.L5:
  79 0020 00000000 		.word	.LC0
  80 0024 28000000 		.word	.LC1
  81              		.cfi_endproc
  82              	.LFE3:
  83              		.size	setConstantSpeed_SetVoltage1_5_and2_4_SpeedIs47_and_75, .-setConstantSpeed_SetVoltage1_5_and
  84              		.section	.text.Run_Tests,"ax",%progbits
  85              		.align	2
  86              		.global	Run_Tests
  87              		.thumb
  88              		.thumb_func
  89              		.type	Run_Tests, %function
  90              	Run_Tests:
  91              	.LFB2:
  22:PumpCtrlUnitTest.c ****     UART_1_Start();
  92              		.loc 1 22 0
  93              		.cfi_startproc
  94              		@ args = 0, pretend = 0, frame = 0
  95              		@ frame_needed = 0, uses_anonymous_args = 0
  96 0000 08B5     		push	{r3, lr}
  97              		.cfi_def_cfa_offset 8
  98              		.cfi_offset 3, -8
  99              		.cfi_offset 14, -4
  23:PumpCtrlUnitTest.c ****     setConstantSpeed_SetVoltage1_5_and2_4_SpeedIs47_and_75();
 100              		.loc 1 23 0
 101 0002 FFF7FEFF 		bl	UART_1_Start
 102              	.LVL5:
  24:PumpCtrlUnitTest.c **** }
 103              		.loc 1 24 0
 104 0006 FFF7FEFF 		bl	setConstantSpeed_SetVoltage1_5_and2_4_SpeedIs47_and_75
 105              	.LVL6:
 106 000a 08BD     		pop	{r3, pc}
 107              		.cfi_endproc
 108              	.LFE2:
 109              		.size	Run_Tests, .-Run_Tests
 110              		.section	.text.Pump_Setup_CallMethod_CallsMethodInBody,"ax",%progbits
 111              		.align	2
 112              		.global	Pump_Setup_CallMethod_CallsMethodInBody
 113              		.thumb
 114              		.thumb_func
 115              		.type	Pump_Setup_CallMethod_CallsMethodInBody, %function
 116              	Pump_Setup_CallMethod_CallsMethodInBody:
 117              	.LFB4:
  40:PumpCtrlUnitTest.c ****     speed = (2400*256)/(4096*2);;
  41:PumpCtrlUnitTest.c **** //    snprintf(outputBuffer, sizeof(outputBuffer), "Expected result is 75: result = %u;\r\n",speed)
  42:PumpCtrlUnitTest.c **** //    UART_1_PutString(outputBuffer);
  43:PumpCtrlUnitTest.c **** 
  44:PumpCtrlUnitTest.c **** }
  45:PumpCtrlUnitTest.c **** 
  46:PumpCtrlUnitTest.c **** void Pump_Setup_CallMethod_CallsMethodInBody()
  47:PumpCtrlUnitTest.c **** {
 118              		.loc 1 47 0
 119              		.cfi_startproc
 120              		@ args = 0, pretend = 0, frame = 0
 121              		@ frame_needed = 0, uses_anonymous_args = 0
ARM GAS  C:\Users\nico_\AppData\Local\Temp\ccOJrCp2.s 			page 4


 122 0000 08B5     		push	{r3, lr}
 123              		.cfi_def_cfa_offset 8
 124              		.cfi_offset 3, -8
 125              		.cfi_offset 14, -4
  48:PumpCtrlUnitTest.c ****     UART_1_PutString("Expected to call methods: \r\n");
 126              		.loc 1 48 0
 127 0002 0248     		ldr	r0, .L11
 128 0004 FFF7FEFF 		bl	UART_1_PutString
 129              	.LVL7:
 130 0008 08BD     		pop	{r3, pc}
 131              	.L12:
 132 000a 00BF     		.align	2
 133              	.L11:
 134 000c 50000000 		.word	.LC2
 135              		.cfi_endproc
 136              	.LFE4:
 137              		.size	Pump_Setup_CallMethod_CallsMethodInBody, .-Pump_Setup_CallMethod_CallsMethodInBody
 138              		.section	.text.Pump_PumpStart_CallMethod_PumpStarted,"ax",%progbits
 139              		.align	2
 140              		.global	Pump_PumpStart_CallMethod_PumpStarted
 141              		.thumb
 142              		.thumb_func
 143              		.type	Pump_PumpStart_CallMethod_PumpStarted, %function
 144              	Pump_PumpStart_CallMethod_PumpStarted:
 145              	.LFB5:
  49:PumpCtrlUnitTest.c ****     
  50:PumpCtrlUnitTest.c **** }
  51:PumpCtrlUnitTest.c **** 
  52:PumpCtrlUnitTest.c **** 
  53:PumpCtrlUnitTest.c **** void Pump_PumpStart_CallMethod_PumpStarted()
  54:PumpCtrlUnitTest.c **** {
 146              		.loc 1 54 0
 147              		.cfi_startproc
 148              		@ args = 0, pretend = 0, frame = 0
 149              		@ frame_needed = 0, uses_anonymous_args = 0
 150 0000 08B5     		push	{r3, lr}
 151              		.cfi_def_cfa_offset 8
 152              		.cfi_offset 3, -8
 153              		.cfi_offset 14, -4
  55:PumpCtrlUnitTest.c ****     Pump_Setup();
 154              		.loc 1 55 0
 155 0002 FFF7FEFF 		bl	Pump_Setup
 156              	.LVL8:
  56:PumpCtrlUnitTest.c ****     CyDelay(1000);
 157              		.loc 1 56 0
 158 0006 4FF47A70 		mov	r0, #1000
 159 000a FFF7FEFF 		bl	CyDelay
 160              	.LVL9:
  57:PumpCtrlUnitTest.c ****     Pump_Start();
 161              		.loc 1 57 0
 162 000e FFF7FEFF 		bl	Pump_Start
 163              	.LVL10:
 164 0012 08BD     		pop	{r3, pc}
 165              		.cfi_endproc
 166              	.LFE5:
 167              		.size	Pump_PumpStart_CallMethod_PumpStarted, .-Pump_PumpStart_CallMethod_PumpStarted
 168              		.section	.text.Pump_PumpStartUp_CallMethod_CorrectMethodsCalled,"ax",%progbits
ARM GAS  C:\Users\nico_\AppData\Local\Temp\ccOJrCp2.s 			page 5


 169              		.align	2
 170              		.global	Pump_PumpStartUp_CallMethod_CorrectMethodsCalled
 171              		.thumb
 172              		.thumb_func
 173              		.type	Pump_PumpStartUp_CallMethod_CorrectMethodsCalled, %function
 174              	Pump_PumpStartUp_CallMethod_CorrectMethodsCalled:
 175              	.LFB6:
  58:PumpCtrlUnitTest.c ****     
  59:PumpCtrlUnitTest.c **** }
  60:PumpCtrlUnitTest.c **** 
  61:PumpCtrlUnitTest.c **** void Pump_PumpStartUp_CallMethod_CorrectMethodsCalled()
  62:PumpCtrlUnitTest.c **** {
 176              		.loc 1 62 0
 177              		.cfi_startproc
 178              		@ args = 0, pretend = 0, frame = 0
 179              		@ frame_needed = 0, uses_anonymous_args = 0
 180 0000 08B5     		push	{r3, lr}
 181              		.cfi_def_cfa_offset 8
 182              		.cfi_offset 3, -8
 183              		.cfi_offset 14, -4
  63:PumpCtrlUnitTest.c ****     UART_1_Start();   
 184              		.loc 1 63 0
 185 0002 FFF7FEFF 		bl	UART_1_Start
 186              	.LVL11:
  64:PumpCtrlUnitTest.c ****     Pump_Startup(1000);
 187              		.loc 1 64 0
 188 0006 4FF47A70 		mov	r0, #1000
 189 000a FFF7FEFF 		bl	Pump_Startup
 190              	.LVL12:
 191 000e 08BD     		pop	{r3, pc}
 192              		.cfi_endproc
 193              	.LFE6:
 194              		.size	Pump_PumpStartUp_CallMethod_CorrectMethodsCalled, .-Pump_PumpStartUp_CallMethod_CorrectMetho
 195              		.section	.text.Pump_SetConstSpeed_CallMethodWith63_OutputIs2V,"ax",%progbits
 196              		.align	2
 197              		.global	Pump_SetConstSpeed_CallMethodWith63_OutputIs2V
 198              		.thumb
 199              		.thumb_func
 200              		.type	Pump_SetConstSpeed_CallMethodWith63_OutputIs2V, %function
 201              	Pump_SetConstSpeed_CallMethodWith63_OutputIs2V:
 202              	.LFB7:
  65:PumpCtrlUnitTest.c ****     
  66:PumpCtrlUnitTest.c **** }
  67:PumpCtrlUnitTest.c **** 
  68:PumpCtrlUnitTest.c **** void Pump_SetConstSpeed_CallMethodWith63_OutputIs2V()
  69:PumpCtrlUnitTest.c **** {
 203              		.loc 1 69 0
 204              		.cfi_startproc
 205              		@ args = 0, pretend = 0, frame = 0
 206              		@ frame_needed = 0, uses_anonymous_args = 0
 207 0000 08B5     		push	{r3, lr}
 208              		.cfi_def_cfa_offset 8
 209              		.cfi_offset 3, -8
 210              		.cfi_offset 14, -4
  70:PumpCtrlUnitTest.c ****     Pump_Setup();
 211              		.loc 1 70 0
 212 0002 FFF7FEFF 		bl	Pump_Setup
ARM GAS  C:\Users\nico_\AppData\Local\Temp\ccOJrCp2.s 			page 6


 213              	.LVL13:
  71:PumpCtrlUnitTest.c ****     Pump_Startup(2000);
 214              		.loc 1 71 0
 215 0006 4FF4FA60 		mov	r0, #2000
 216 000a FFF7FEFF 		bl	Pump_Startup
 217              	.LVL14:
 218 000e 08BD     		pop	{r3, pc}
 219              		.cfi_endproc
 220              	.LFE7:
 221              		.size	Pump_SetConstSpeed_CallMethodWith63_OutputIs2V, .-Pump_SetConstSpeed_CallMethodWith63_Output
 222              		.section	.text.Pump_SetConstSpeed_CallMethodWith94_OutputIs3V,"ax",%progbits
 223              		.align	2
 224              		.global	Pump_SetConstSpeed_CallMethodWith94_OutputIs3V
 225              		.thumb
 226              		.thumb_func
 227              		.type	Pump_SetConstSpeed_CallMethodWith94_OutputIs3V, %function
 228              	Pump_SetConstSpeed_CallMethodWith94_OutputIs3V:
 229              	.LFB8:
  72:PumpCtrlUnitTest.c ****     
  73:PumpCtrlUnitTest.c **** }
  74:PumpCtrlUnitTest.c **** 
  75:PumpCtrlUnitTest.c **** void Pump_SetConstSpeed_CallMethodWith94_OutputIs3V()
  76:PumpCtrlUnitTest.c **** {
 230              		.loc 1 76 0
 231              		.cfi_startproc
 232              		@ args = 0, pretend = 0, frame = 0
 233              		@ frame_needed = 0, uses_anonymous_args = 0
 234 0000 08B5     		push	{r3, lr}
 235              		.cfi_def_cfa_offset 8
 236              		.cfi_offset 3, -8
 237              		.cfi_offset 14, -4
  77:PumpCtrlUnitTest.c ****     Pump_Setup();
 238              		.loc 1 77 0
 239 0002 FFF7FEFF 		bl	Pump_Setup
 240              	.LVL15:
  78:PumpCtrlUnitTest.c ****     Pump_Startup(3000);
 241              		.loc 1 78 0
 242 0006 40F6B830 		movw	r0, #3000
 243 000a FFF7FEFF 		bl	Pump_Startup
 244              	.LVL16:
 245 000e 08BD     		pop	{r3, pc}
 246              		.cfi_endproc
 247              	.LFE8:
 248              		.size	Pump_SetConstSpeed_CallMethodWith94_OutputIs3V, .-Pump_SetConstSpeed_CallMethodWith94_Output
 249              		.section	.text.Pump_PumpStop_CallMethod_OutputIs4_6VOnPin02,"ax",%progbits
 250              		.align	2
 251              		.global	Pump_PumpStop_CallMethod_OutputIs4_6VOnPin02
 252              		.thumb
 253              		.thumb_func
 254              		.type	Pump_PumpStop_CallMethod_OutputIs4_6VOnPin02, %function
 255              	Pump_PumpStop_CallMethod_OutputIs4_6VOnPin02:
 256              	.LFB9:
  79:PumpCtrlUnitTest.c **** }
  80:PumpCtrlUnitTest.c **** 
  81:PumpCtrlUnitTest.c **** void Pump_PumpStop_CallMethod_OutputIs4_6VOnPin02()
  82:PumpCtrlUnitTest.c **** {
 257              		.loc 1 82 0
ARM GAS  C:\Users\nico_\AppData\Local\Temp\ccOJrCp2.s 			page 7


 258              		.cfi_startproc
 259              		@ args = 0, pretend = 0, frame = 0
 260              		@ frame_needed = 0, uses_anonymous_args = 0
 261 0000 08B5     		push	{r3, lr}
 262              		.cfi_def_cfa_offset 8
 263              		.cfi_offset 3, -8
 264              		.cfi_offset 14, -4
  83:PumpCtrlUnitTest.c ****     Pump_Setup();
 265              		.loc 1 83 0
 266 0002 FFF7FEFF 		bl	Pump_Setup
 267              	.LVL17:
 268 0006 08BD     		pop	{r3, pc}
 269              		.cfi_endproc
 270              	.LFE9:
 271              		.size	Pump_PumpStop_CallMethod_OutputIs4_6VOnPin02, .-Pump_PumpStop_CallMethod_OutputIs4_6VOnPin02
 272              		.section	.rodata.str1.4,"aMS",%progbits,1
 273              		.align	2
 274              	.LC0:
 275 0000 53706565 		.ascii	"Speed control voltage set to 1500 mV\015\012\000"
 275      6420636F 
 275      6E74726F 
 275      6C20766F 
 275      6C746167 
 276 0027 00       		.space	1
 277              	.LC1:
 278 0028 53706565 		.ascii	"Speed control voltage set to 24000 mV\015\012\000"
 278      6420636F 
 278      6E74726F 
 278      6C20766F 
 278      6C746167 
 279              	.LC2:
 280 0050 45787065 		.ascii	"Expected to call methods: \015\012\000"
 280      63746564 
 280      20746F20 
 280      63616C6C 
 280      206D6574 
 281              		.text
 282              	.Letext0:
 283              		.file 2 "Generated_Source\\PSoC5/UART_1.h"
 284              		.file 3 "PumpCtrl.h"
 285              		.file 4 "Generated_Source\\PSoC5/CyLib.h"
 286              		.file 5 "Generated_Source\\PSoC5/cytypes.h"