ARM GAS  C:\Users\nico_\AppData\Local\Temp\ccadluxn.s 			page 1


   1              		.syntax unified
   2              		.cpu cortex-m3
   3              		.fpu softvfp
   4              		.eabi_attribute 20, 1
   5              		.eabi_attribute 21, 1
   6              		.eabi_attribute 23, 3
   7              		.eabi_attribute 24, 1
   8              		.eabi_attribute 25, 1
   9              		.eabi_attribute 26, 1
  10              		.eabi_attribute 30, 1
  11              		.eabi_attribute 34, 1
  12              		.eabi_attribute 18, 4
  13              		.thumb
  14              		.syntax unified
  15              		.file	"PumpCtrl.c"
  16              		.text
  17              	.Ltext0:
  18              		.cfi_sections	.debug_frame
  19              		.section	.text.Pump_Start,"ax",%progbits
  20              		.align	2
  21              		.global	Pump_Start
  22              		.thumb
  23              		.thumb_func
  24              		.type	Pump_Start, %function
  25              	Pump_Start:
  26              	.LFB4:
  27              		.file 1 "PumpCtrl.c"
   1:PumpCtrl.c    **** /* ========================================
   2:PumpCtrl.c    ****  *
   3:PumpCtrl.c    ****  * Copyright YOUR COMPANY, THE YEAR
   4:PumpCtrl.c    ****  * All Rights Reserved
   5:PumpCtrl.c    ****  * UNPUBLISHED, LICENSED SOFTWARE.
   6:PumpCtrl.c    ****  *
   7:PumpCtrl.c    ****  * CONFIDENTIAL AND PROPRIETARY INFORMATION
   8:PumpCtrl.c    ****  * WHICH IS THE PROPERTY OF your company.
   9:PumpCtrl.c    ****  *
  10:PumpCtrl.c    ****  * ========================================
  11:PumpCtrl.c    **** */
  12:PumpCtrl.c    **** #include "PumpCtrl.h"
  13:PumpCtrl.c    **** 
  14:PumpCtrl.c    **** float voltage;
  15:PumpCtrl.c    **** void SetSpeed(uint8_t speed);
  16:PumpCtrl.c    **** uint8 SetConstSpeed(uint16 speed_control_voltage);
  17:PumpCtrl.c    **** 
  18:PumpCtrl.c    **** 
  19:PumpCtrl.c    **** /*Initialize the VDAC component for speed control*/
  20:PumpCtrl.c    **** void Pump_Setup()
  21:PumpCtrl.c    **** {
  22:PumpCtrl.c    **** 
  23:PumpCtrl.c    ****     //Set the range for the VDAC Speed control to the 0V-4.096V range
  24:PumpCtrl.c    ****     VDAC8_SpeedControl_SetRange(VDAC8_SpeedControl_RANGE_4V);
  25:PumpCtrl.c    ****     //Set initial speed to 0;
  26:PumpCtrl.c    ****     VDAC8_SpeedControl_SetValue(0);
  27:PumpCtrl.c    ****     
  28:PumpCtrl.c    ****     //Set range for the VDAC for enabling through the transistor
  29:PumpCtrl.c    ****     VDAC8_Enabling_SetRange(VDAC8_Enabling_RANGE_4V);   
  30:PumpCtrl.c    ****     //Set the initial enabling VDAC value to 3.2V from a maximum of 4.080 from the VDAC
ARM GAS  C:\Users\nico_\AppData\Local\Temp\ccadluxn.s 			page 2


  31:PumpCtrl.c    ****     VDAC8_Enabling_SetValue(4.080*3.2/255);
  32:PumpCtrl.c    ****     
  33:PumpCtrl.c    ****     //Start VDAC_enabling
  34:PumpCtrl.c    ****     VDAC8_Enabling_Start();
  35:PumpCtrl.c    **** 
  36:PumpCtrl.c    ****     //Stop pump.
  37:PumpCtrl.c    ****     Pump_Stop();
  38:PumpCtrl.c    **** }
  39:PumpCtrl.c    **** 
  40:PumpCtrl.c    **** /*Controlled shutdown of pump and it's software components*/
  41:PumpCtrl.c    **** void Pump_Shutdown()
  42:PumpCtrl.c    **** {
  43:PumpCtrl.c    ****     //Stop VDAC in outputting the speed control voltage. Set output value to 0.
  44:PumpCtrl.c    ****     VDAC8_SpeedControl_Stop();
  45:PumpCtrl.c    ****     VDAC8_SpeedControl_SetValue(0);
  46:PumpCtrl.c    ****     
  47:PumpCtrl.c    ****     PGA_SpeedControl_Stop();
  48:PumpCtrl.c    ****     
  49:PumpCtrl.c    ****     //Stop the pump
  50:PumpCtrl.c    ****     Pump_Stop();
  51:PumpCtrl.c    **** }
  52:PumpCtrl.c    **** 
  53:PumpCtrl.c    **** /*Controlled startup of pump*/
  54:PumpCtrl.c    **** void Pump_Startup()
  55:PumpCtrl.c    **** {
  56:PumpCtrl.c    ****     //Set speed control voltage to 2.5V
  57:PumpCtrl.c    ****     uint8 speed = SetConstSpeed(2500);
  58:PumpCtrl.c    ****     VDAC8_SpeedControl_SetValue(speed);
  59:PumpCtrl.c    ****     
  60:PumpCtrl.c    ****     
  61:PumpCtrl.c    ****     //Start VDAC to output the speed control voltage
  62:PumpCtrl.c    ****     VDAC8_SpeedControl_Start();
  63:PumpCtrl.c    ****     
  64:PumpCtrl.c    ****     //Call Pump start
  65:PumpCtrl.c    ****     Pump_Start();
  66:PumpCtrl.c    **** }
  67:PumpCtrl.c    **** 
  68:PumpCtrl.c    **** 
  69:PumpCtrl.c    **** /*Start the pump by enabling it, and setting the speed control variable*/
  70:PumpCtrl.c    **** void Pump_Start()
  71:PumpCtrl.c    **** {
  28              		.loc 1 71 0
  29              		.cfi_startproc
  30              		@ args = 0, pretend = 0, frame = 0
  31              		@ frame_needed = 0, uses_anonymous_args = 0
  32 0000 08B5     		push	{r3, lr}
  33              		.cfi_def_cfa_offset 8
  34              		.cfi_offset 3, -8
  35              		.cfi_offset 14, -4
  72:PumpCtrl.c    ****     //Enable pump through closing transistor.
  73:PumpCtrl.c    ****     VDAC8_Enabling_SetValue(0);
  36              		.loc 1 73 0
  37 0002 0020     		movs	r0, #0
  38 0004 FFF7FEFF 		bl	VDAC8_Enabling_SetValue
  39              	.LVL0:
  40 0008 08BD     		pop	{r3, pc}
  41              		.cfi_endproc
ARM GAS  C:\Users\nico_\AppData\Local\Temp\ccadluxn.s 			page 3


  42              	.LFE4:
  43              		.size	Pump_Start, .-Pump_Start
  44 000a 00BF     		.section	.text.Pump_Stop,"ax",%progbits
  45              		.align	2
  46              		.global	Pump_Stop
  47              		.thumb
  48              		.thumb_func
  49              		.type	Pump_Stop, %function
  50              	Pump_Stop:
  51              	.LFB5:
  74:PumpCtrl.c    ****     
  75:PumpCtrl.c    **** }
  76:PumpCtrl.c    **** 
  77:PumpCtrl.c    **** 
  78:PumpCtrl.c    **** /*Opens up the transistor, connecting the enable pin on pump controller
  79:PumpCtrl.c    **** board to ground. This stop the pump.*/
  80:PumpCtrl.c    **** void Pump_Stop()
  81:PumpCtrl.c    **** {
  52              		.loc 1 81 0
  53              		.cfi_startproc
  54              		@ args = 0, pretend = 0, frame = 0
  55              		@ frame_needed = 0, uses_anonymous_args = 0
  56 0000 08B5     		push	{r3, lr}
  57              		.cfi_def_cfa_offset 8
  58              		.cfi_offset 3, -8
  59              		.cfi_offset 14, -4
  82:PumpCtrl.c    ****     VDAC8_Enabling_SetValue(255); 
  60              		.loc 1 82 0
  61 0002 FF20     		movs	r0, #255
  62 0004 FFF7FEFF 		bl	VDAC8_Enabling_SetValue
  63              	.LVL1:
  64 0008 08BD     		pop	{r3, pc}
  65              		.cfi_endproc
  66              	.LFE5:
  67              		.size	Pump_Stop, .-Pump_Stop
  68 000a 00BF     		.section	.text.Pump_Setup,"ax",%progbits
  69              		.align	2
  70              		.global	Pump_Setup
  71              		.thumb
  72              		.thumb_func
  73              		.type	Pump_Setup, %function
  74              	Pump_Setup:
  75              	.LFB1:
  21:PumpCtrl.c    **** 
  76              		.loc 1 21 0
  77              		.cfi_startproc
  78              		@ args = 0, pretend = 0, frame = 0
  79              		@ frame_needed = 0, uses_anonymous_args = 0
  80 0000 08B5     		push	{r3, lr}
  81              		.cfi_def_cfa_offset 8
  82              		.cfi_offset 3, -8
  83              		.cfi_offset 14, -4
  24:PumpCtrl.c    ****     //Set initial speed to 0;
  84              		.loc 1 24 0
  85 0002 0420     		movs	r0, #4
  86 0004 FFF7FEFF 		bl	VDAC8_SpeedControl_SetRange
  87              	.LVL2:
ARM GAS  C:\Users\nico_\AppData\Local\Temp\ccadluxn.s 			page 4


  26:PumpCtrl.c    ****     
  88              		.loc 1 26 0
  89 0008 0020     		movs	r0, #0
  90 000a FFF7FEFF 		bl	VDAC8_SpeedControl_SetValue
  91              	.LVL3:
  29:PumpCtrl.c    ****     //Set the initial enabling VDAC value to 3.2V from a maximum of 4.080 from the VDAC
  92              		.loc 1 29 0
  93 000e 0420     		movs	r0, #4
  94 0010 FFF7FEFF 		bl	VDAC8_Enabling_SetRange
  95              	.LVL4:
  31:PumpCtrl.c    ****     
  96              		.loc 1 31 0
  97 0014 0020     		movs	r0, #0
  98 0016 FFF7FEFF 		bl	VDAC8_Enabling_SetValue
  99              	.LVL5:
  34:PumpCtrl.c    **** 
 100              		.loc 1 34 0
 101 001a FFF7FEFF 		bl	VDAC8_Enabling_Start
 102              	.LVL6:
  37:PumpCtrl.c    **** }
 103              		.loc 1 37 0
 104 001e FFF7FEFF 		bl	Pump_Stop
 105              	.LVL7:
 106 0022 08BD     		pop	{r3, pc}
 107              		.cfi_endproc
 108              	.LFE1:
 109              		.size	Pump_Setup, .-Pump_Setup
 110              		.section	.text.Pump_Shutdown,"ax",%progbits
 111              		.align	2
 112              		.global	Pump_Shutdown
 113              		.thumb
 114              		.thumb_func
 115              		.type	Pump_Shutdown, %function
 116              	Pump_Shutdown:
 117              	.LFB2:
  42:PumpCtrl.c    ****     //Stop VDAC in outputting the speed control voltage. Set output value to 0.
 118              		.loc 1 42 0
 119              		.cfi_startproc
 120              		@ args = 0, pretend = 0, frame = 0
 121              		@ frame_needed = 0, uses_anonymous_args = 0
 122 0000 08B5     		push	{r3, lr}
 123              		.cfi_def_cfa_offset 8
 124              		.cfi_offset 3, -8
 125              		.cfi_offset 14, -4
  44:PumpCtrl.c    ****     VDAC8_SpeedControl_SetValue(0);
 126              		.loc 1 44 0
 127 0002 FFF7FEFF 		bl	VDAC8_SpeedControl_Stop
 128              	.LVL8:
  45:PumpCtrl.c    ****     
 129              		.loc 1 45 0
 130 0006 0020     		movs	r0, #0
 131 0008 FFF7FEFF 		bl	VDAC8_SpeedControl_SetValue
 132              	.LVL9:
  47:PumpCtrl.c    ****     
 133              		.loc 1 47 0
 134 000c FFF7FEFF 		bl	PGA_SpeedControl_Stop
 135              	.LVL10:
ARM GAS  C:\Users\nico_\AppData\Local\Temp\ccadluxn.s 			page 5


  50:PumpCtrl.c    **** }
 136              		.loc 1 50 0
 137 0010 FFF7FEFF 		bl	Pump_Stop
 138              	.LVL11:
 139 0014 08BD     		pop	{r3, pc}
 140              		.cfi_endproc
 141              	.LFE2:
 142              		.size	Pump_Shutdown, .-Pump_Shutdown
 143              		.global	__aeabi_ui2f
 144              		.global	__aeabi_fmul
 145              		.global	__aeabi_fadd
 146              		.global	__aeabi_fcmplt
 147              		.global	__aeabi_fcmpgt
 148 0016 00BF     		.section	.text.SetSpeed,"ax",%progbits
 149              		.align	2
 150              		.global	SetSpeed
 151              		.thumb
 152              		.thumb_func
 153              		.type	SetSpeed, %function
 154              	SetSpeed:
 155              	.LFB6:
  83:PumpCtrl.c    **** }
  84:PumpCtrl.c    **** 
  85:PumpCtrl.c    **** 
  86:PumpCtrl.c    **** 
  87:PumpCtrl.c    **** /*Set speed of the pump via the VDAC component*/
  88:PumpCtrl.c    **** void SetSpeed(uint8_t speed)
  89:PumpCtrl.c    **** {
 156              		.loc 1 89 0
 157              		.cfi_startproc
 158              		@ args = 0, pretend = 0, frame = 0
 159              		@ frame_needed = 0, uses_anonymous_args = 0
 160              	.LVL12:
 161 0000 38B5     		push	{r3, r4, r5, lr}
 162              		.cfi_def_cfa_offset 16
 163              		.cfi_offset 3, -16
 164              		.cfi_offset 4, -12
 165              		.cfi_offset 5, -8
 166              		.cfi_offset 14, -4
 167 0002 0546     		mov	r5, r0
  90:PumpCtrl.c    ****     
  91:PumpCtrl.c    ****     voltage = ((float)speed/256)*4096*2; //Calculate the new voltage for the speed control.
 168              		.loc 1 91 0
 169 0004 FFF7FEFF 		bl	__aeabi_ui2f
 170              	.LVL13:
 171 0008 4FF06E51 		mov	r1, #998244352
 172 000c FFF7FEFF 		bl	__aeabi_fmul
 173              	.LVL14:
 174 0010 4FF08B41 		mov	r1, #1166016512
 175 0014 FFF7FEFF 		bl	__aeabi_fmul
 176              	.LVL15:
 177 0018 0146     		mov	r1, r0
 178 001a FFF7FEFF 		bl	__aeabi_fadd
 179              	.LVL16:
 180 001e 0446     		mov	r4, r0
 181 0020 0B4B     		ldr	r3, .L20
 182 0022 1860     		str	r0, [r3]	@ float
ARM GAS  C:\Users\nico_\AppData\Local\Temp\ccadluxn.s 			page 6


  92:PumpCtrl.c    ****     
  93:PumpCtrl.c    ****     /*Check if voltage is below zero == speed has become negative*/
  94:PumpCtrl.c    ****     if(voltage < 0)
 183              		.loc 1 94 0
 184 0024 0021     		movs	r1, #0
 185 0026 FFF7FEFF 		bl	__aeabi_fcmplt
 186              	.LVL17:
 187 002a 18B1     		cbz	r0, .L17
  95:PumpCtrl.c    ****     {
  96:PumpCtrl.c    ****         VDAC8_SpeedControl_SetValue(0);       
 188              		.loc 1 96 0
 189 002c 0020     		movs	r0, #0
 190 002e FFF7FEFF 		bl	VDAC8_SpeedControl_SetValue
 191              	.LVL18:
 192 0032 38BD     		pop	{r3, r4, r5, pc}
 193              	.L17:
  97:PumpCtrl.c    ****     }
  98:PumpCtrl.c    ****     /*Check if voltage is above maximum*/
  99:PumpCtrl.c    ****     else if(voltage > 4500)
 194              		.loc 1 99 0
 195 0034 0749     		ldr	r1, .L20+4
 196 0036 2046     		mov	r0, r4
 197 0038 FFF7FEFF 		bl	__aeabi_fcmpgt
 198              	.LVL19:
 199 003c 18B1     		cbz	r0, .L18
 200              	.LVL20:
 100:PumpCtrl.c    ****     {
 101:PumpCtrl.c    ****         speed = (uint8)((4500 * 255) / (4096 * 2)); //Maximum speed when PGA gain is 2.
 102:PumpCtrl.c    ****         VDAC8_SpeedControl_SetValue(speed);
 201              		.loc 1 102 0
 202 003e 8C20     		movs	r0, #140
 203 0040 FFF7FEFF 		bl	VDAC8_SpeedControl_SetValue
 204              	.LVL21:
 205 0044 38BD     		pop	{r3, r4, r5, pc}
 206              	.LVL22:
 207              	.L18:
 103:PumpCtrl.c    ****     }
 104:PumpCtrl.c    ****     else
 105:PumpCtrl.c    ****     {
 106:PumpCtrl.c    ****         VDAC8_SpeedControl_SetValue(speed);
 208              		.loc 1 106 0
 209 0046 2846     		mov	r0, r5
 210 0048 FFF7FEFF 		bl	VDAC8_SpeedControl_SetValue
 211              	.LVL23:
 212 004c 38BD     		pop	{r3, r4, r5, pc}
 213              	.L21:
 214 004e 00BF     		.align	2
 215              	.L20:
 216 0050 00000000 		.word	voltage
 217 0054 00A08C45 		.word	1166843904
 218              		.cfi_endproc
 219              	.LFE6:
 220              		.size	SetSpeed, .-SetSpeed
 221              		.section	.text.SetConstSpeed,"ax",%progbits
 222              		.align	2
 223              		.global	SetConstSpeed
 224              		.thumb
ARM GAS  C:\Users\nico_\AppData\Local\Temp\ccadluxn.s 			page 7


 225              		.thumb_func
 226              		.type	SetConstSpeed, %function
 227              	SetConstSpeed:
 228              	.LFB7:
 107:PumpCtrl.c    ****     }
 108:PumpCtrl.c    ****     
 109:PumpCtrl.c    ****     
 110:PumpCtrl.c    **** }
 111:PumpCtrl.c    **** 
 112:PumpCtrl.c    **** 
 113:PumpCtrl.c    **** uint8 SetConstSpeed(uint16 speed_control_voltage)
 114:PumpCtrl.c    **** {
 229              		.loc 1 114 0
 230              		.cfi_startproc
 231              		@ args = 0, pretend = 0, frame = 0
 232              		@ frame_needed = 0, uses_anonymous_args = 0
 233              		@ link register save eliminated.
 234              	.LVL24:
 115:PumpCtrl.c    ****     uint8 const_speed = (speed_control_voltage*256)/(4096*2); //Calculate the speed corresponding t
 235              		.loc 1 115 0
 236 0000 0002     		lsls	r0, r0, #8
 237              	.LVL25:
 116:PumpCtrl.c    ****     return const_speed;
 117:PumpCtrl.c    **** }
 238              		.loc 1 117 0
 239 0002 C0F34730 		ubfx	r0, r0, #13, #8
 240              	.LVL26:
 241 0006 7047     		bx	lr
 242              		.cfi_endproc
 243              	.LFE7:
 244              		.size	SetConstSpeed, .-SetConstSpeed
 245              		.section	.text.Pump_Startup,"ax",%progbits
 246              		.align	2
 247              		.global	Pump_Startup
 248              		.thumb
 249              		.thumb_func
 250              		.type	Pump_Startup, %function
 251              	Pump_Startup:
 252              	.LFB3:
  55:PumpCtrl.c    ****     //Set speed control voltage to 2.5V
 253              		.loc 1 55 0
 254              		.cfi_startproc
 255              		@ args = 0, pretend = 0, frame = 0
 256              		@ frame_needed = 0, uses_anonymous_args = 0
 257 0000 08B5     		push	{r3, lr}
 258              		.cfi_def_cfa_offset 8
 259              		.cfi_offset 3, -8
 260              		.cfi_offset 14, -4
  57:PumpCtrl.c    ****     VDAC8_SpeedControl_SetValue(speed);
 261              		.loc 1 57 0
 262 0002 40F6C410 		movw	r0, #2500
 263 0006 FFF7FEFF 		bl	SetConstSpeed
 264              	.LVL27:
  58:PumpCtrl.c    ****     
 265              		.loc 1 58 0
 266 000a FFF7FEFF 		bl	VDAC8_SpeedControl_SetValue
 267              	.LVL28:
ARM GAS  C:\Users\nico_\AppData\Local\Temp\ccadluxn.s 			page 8


  62:PumpCtrl.c    ****     
 268              		.loc 1 62 0
 269 000e FFF7FEFF 		bl	VDAC8_SpeedControl_Start
 270              	.LVL29:
  65:PumpCtrl.c    **** }
 271              		.loc 1 65 0
 272 0012 FFF7FEFF 		bl	Pump_Start
 273              	.LVL30:
 274 0016 08BD     		pop	{r3, pc}
 275              		.cfi_endproc
 276              	.LFE3:
 277              		.size	Pump_Startup, .-Pump_Startup
 278              		.comm	voltage,4,4
 279              		.text
 280              	.Letext0:
 281              		.file 2 "c:\\program files (x86)\\cypress\\psoc creator\\4.4\\psoc creator\\import\\gnu\\arm\\5.4.
 282              		.file 3 "c:\\program files (x86)\\cypress\\psoc creator\\4.4\\psoc creator\\import\\gnu\\arm\\5.4.
 283              		.file 4 "Generated_Source\\PSoC5/cytypes.h"
 284              		.file 5 "Generated_Source\\PSoC5/VDAC8_Enabling.h"
 285              		.file 6 "Generated_Source\\PSoC5/VDAC8_SpeedControl.h"
 286              		.file 7 "Generated_Source\\PSoC5/PGA_SpeedControl.h"