ARM GAS  C:\Users\nico_\AppData\Local\Temp\ccfP5YAd.s 			page 1


   1              		.syntax unified
   2              		.cpu cortex-m3
   3              		.fpu softvfp
   4              		.eabi_attribute 20, 1
   5              		.eabi_attribute 21, 1
   6              		.eabi_attribute 23, 3
   7              		.eabi_attribute 24, 1
   8              		.eabi_attribute 25, 1
   9              		.eabi_attribute 26, 1
  10              		.eabi_attribute 30, 1
  11              		.eabi_attribute 34, 1
  12              		.eabi_attribute 18, 4
  13              		.thumb
  14              		.syntax unified
  15              		.file	"RTD_1.c"
  16              		.text
  17              	.Ltext0:
  18              		.cfi_sections	.debug_frame
  19              		.section	.text.RTD_1_MultShift24,"ax",%progbits
  20              		.align	2
  21              		.global	RTD_1_MultShift24
  22              		.thumb
  23              		.thumb_func
  24              		.type	RTD_1_MultShift24, %function
  25              	RTD_1_MultShift24:
  26              	.LFB0:
  27              		.file 1 "Generated_Source\\PSoC5\\RTD_1.c"
   1:Generated_Source\PSoC5/RTD_1.c **** /*******************************************************************************
   2:Generated_Source\PSoC5/RTD_1.c **** * File Name: RTD_1.c
   3:Generated_Source\PSoC5/RTD_1.c **** * Version 1.20
   4:Generated_Source\PSoC5/RTD_1.c **** *
   5:Generated_Source\PSoC5/RTD_1.c **** * Description:
   6:Generated_Source\PSoC5/RTD_1.c **** *  This file provides the source code to the API for the RTDCalc Component.
   7:Generated_Source\PSoC5/RTD_1.c **** *
   8:Generated_Source\PSoC5/RTD_1.c **** * Note:
   9:Generated_Source\PSoC5/RTD_1.c **** *  None.
  10:Generated_Source\PSoC5/RTD_1.c **** *
  11:Generated_Source\PSoC5/RTD_1.c **** ********************************************************************************
  12:Generated_Source\PSoC5/RTD_1.c **** * Copyright 2012-2013, Cypress Semiconductor Corporation.  All rights reserved.
  13:Generated_Source\PSoC5/RTD_1.c **** * You may use this file only in accordance with the license, terms, conditions,
  14:Generated_Source\PSoC5/RTD_1.c **** * disclaimers, and limitations in the end user license agreement accompanying
  15:Generated_Source\PSoC5/RTD_1.c **** * the software package with which this file was provided.
  16:Generated_Source\PSoC5/RTD_1.c **** *******************************************************************************/
  17:Generated_Source\PSoC5/RTD_1.c **** 
  18:Generated_Source\PSoC5/RTD_1.c **** #include "RTD_1.h"
  19:Generated_Source\PSoC5/RTD_1.c **** 
  20:Generated_Source\PSoC5/RTD_1.c **** #if(!CY_PSOC3)
  21:Generated_Source\PSoC5/RTD_1.c **** 
  22:Generated_Source\PSoC5/RTD_1.c **** 
  23:Generated_Source\PSoC5/RTD_1.c ****     /*******************************************************************************
  24:Generated_Source\PSoC5/RTD_1.c ****     * Function Name: RTD_1_MultShift24
  25:Generated_Source\PSoC5/RTD_1.c ****     ********************************************************************************
  26:Generated_Source\PSoC5/RTD_1.c ****     *
  27:Generated_Source\PSoC5/RTD_1.c ****     * Summary:
  28:Generated_Source\PSoC5/RTD_1.c ****     *  Performs the math function (op1 * op2) >> 24 using 64 bit arithmetic without
  29:Generated_Source\PSoC5/RTD_1.c ****     *  any loss of precision and without overflow.
  30:Generated_Source\PSoC5/RTD_1.c ****     *
ARM GAS  C:\Users\nico_\AppData\Local\Temp\ccfP5YAd.s 			page 2


  31:Generated_Source\PSoC5/RTD_1.c ****     * Parameters:
  32:Generated_Source\PSoC5/RTD_1.c ****     *  op1: Signed 32-bit operand
  33:Generated_Source\PSoC5/RTD_1.c ****     *  op2: Unsigned 24-bit operand
  34:Generated_Source\PSoC5/RTD_1.c ****     *
  35:Generated_Source\PSoC5/RTD_1.c ****     * Return:
  36:Generated_Source\PSoC5/RTD_1.c ****     *  Signed 32-bit result of the math calculation
  37:Generated_Source\PSoC5/RTD_1.c ****     *
  38:Generated_Source\PSoC5/RTD_1.c ****     *******************************************************************************/
  39:Generated_Source\PSoC5/RTD_1.c ****     int32 RTD_1_MultShift24(int32 op1, uint32 op2) 
  40:Generated_Source\PSoC5/RTD_1.c ****     {
  28              		.loc 1 40 0
  29              		.cfi_startproc
  30              		@ args = 0, pretend = 0, frame = 0
  31              		@ frame_needed = 0, uses_anonymous_args = 0
  32              		@ link register save eliminated.
  33              	.LVL0:
  34 0000 30B4     		push	{r4, r5}
  35              		.cfi_def_cfa_offset 8
  36              		.cfi_offset 4, -8
  37              		.cfi_offset 5, -4
  38 0002 0B46     		mov	r3, r1
  39              	.LVL1:
  41:Generated_Source\PSoC5/RTD_1.c ****         int64 result=0;
  42:Generated_Source\PSoC5/RTD_1.c **** 
  43:Generated_Source\PSoC5/RTD_1.c ****         result = (int64)op1 * (int64)op2;
  40              		.loc 1 43 0
  41 0004 C517     		asrs	r5, r0, #31
  42 0006 A0FB0101 		umull	r0, r1, r0, r1
  43              	.LVL2:
  44 000a 03FB0511 		mla	r1, r3, r5, r1
  45              	.LVL3:
  44:Generated_Source\PSoC5/RTD_1.c ****         
  45:Generated_Source\PSoC5/RTD_1.c ****         if (result < 0)
  46              		.loc 1 45 0
  47 000e 0028     		cmp	r0, #0
  48 0010 71F10003 		sbcs	r3, r1, #0
  49              	.LVL4:
  50 0014 07DA     		bge	.L2
  46:Generated_Source\PSoC5/RTD_1.c ****         {
  47:Generated_Source\PSoC5/RTD_1.c ****             result = -result;
  51              		.loc 1 47 0
  52 0016 4042     		rsbs	r0, r0, #0
  53              	.LVL5:
  54 0018 61EB4101 		sbc	r1, r1, r1, lsl #1
  55              	.LVL6:
  48:Generated_Source\PSoC5/RTD_1.c ****             result = (int32)((uint32)((uint64)result >> RTD_1_24BIT_SHIFTING));
  56              		.loc 1 48 0
  57 001c 000E     		lsrs	r0, r0, #24
  58              	.LVL7:
  59 001e 40EA0120 		orr	r0, r0, r1, lsl #8
  60              	.LVL8:
  49:Generated_Source\PSoC5/RTD_1.c ****             result = -result;
  61              		.loc 1 49 0
  62 0022 4042     		rsbs	r0, r0, #0
  63              	.LVL9:
  64 0024 02E0     		b	.L3
  65              	.LVL10:
ARM GAS  C:\Users\nico_\AppData\Local\Temp\ccfP5YAd.s 			page 3


  66              	.L2:
  50:Generated_Source\PSoC5/RTD_1.c ****         }
  51:Generated_Source\PSoC5/RTD_1.c ****         else
  52:Generated_Source\PSoC5/RTD_1.c ****         {
  53:Generated_Source\PSoC5/RTD_1.c ****             result = (int32)((uint32)((uint64)result >> RTD_1_24BIT_SHIFTING));
  67              		.loc 1 53 0
  68 0026 000E     		lsrs	r0, r0, #24
  69              	.LVL11:
  70 0028 40EA0120 		orr	r0, r0, r1, lsl #8
  71              	.LVL12:
  72              	.L3:
  54:Generated_Source\PSoC5/RTD_1.c ****         }
  55:Generated_Source\PSoC5/RTD_1.c ****         return (result);
  56:Generated_Source\PSoC5/RTD_1.c ****     }
  73              		.loc 1 56 0
  74 002c 30BC     		pop	{r4, r5}
  75              		.cfi_restore 5
  76              		.cfi_restore 4
  77              		.cfi_def_cfa_offset 0
  78 002e 7047     		bx	lr
  79              		.cfi_endproc
  80              	.LFE0:
  81              		.size	RTD_1_MultShift24, .-RTD_1_MultShift24
  82              		.section	.text.RTD_1_GetTemperature,"ax",%progbits
  83              		.align	2
  84              		.global	RTD_1_GetTemperature
  85              		.thumb
  86              		.thumb_func
  87              		.type	RTD_1_GetTemperature, %function
  88              	RTD_1_GetTemperature:
  89              	.LFB1:
  57:Generated_Source\PSoC5/RTD_1.c **** #endif /* End (!CY_PSOC3) */
  58:Generated_Source\PSoC5/RTD_1.c **** 
  59:Generated_Source\PSoC5/RTD_1.c **** 
  60:Generated_Source\PSoC5/RTD_1.c **** /*******************************************************************************
  61:Generated_Source\PSoC5/RTD_1.c **** * Function Name: RTD_1_GetTemperature
  62:Generated_Source\PSoC5/RTD_1.c **** ********************************************************************************
  63:Generated_Source\PSoC5/RTD_1.c **** *
  64:Generated_Source\PSoC5/RTD_1.c **** * Summary:
  65:Generated_Source\PSoC5/RTD_1.c **** *  Calculates the temperature from RTD resistance.
  66:Generated_Source\PSoC5/RTD_1.c **** *
  67:Generated_Source\PSoC5/RTD_1.c **** * Parameters:
  68:Generated_Source\PSoC5/RTD_1.c **** *  res: Resistance in milliohms.
  69:Generated_Source\PSoC5/RTD_1.c **** *
  70:Generated_Source\PSoC5/RTD_1.c **** * Return:
  71:Generated_Source\PSoC5/RTD_1.c **** *  Temperature in 1/100ths degrees C.
  72:Generated_Source\PSoC5/RTD_1.c **** *
  73:Generated_Source\PSoC5/RTD_1.c **** *******************************************************************************/
  74:Generated_Source\PSoC5/RTD_1.c **** int32 RTD_1_GetTemperature(uint32 res) 
  75:Generated_Source\PSoC5/RTD_1.c **** 
  76:Generated_Source\PSoC5/RTD_1.c **** #if (CY_PSOC3)
  77:Generated_Source\PSoC5/RTD_1.c **** {
  78:Generated_Source\PSoC5/RTD_1.c **** 
  79:Generated_Source\PSoC5/RTD_1.c ****     /***************************************
  80:Generated_Source\PSoC5/RTD_1.c ****     *  Customizer Generated Coefficients
  81:Generated_Source\PSoC5/RTD_1.c ****     ***************************************/
  82:Generated_Source\PSoC5/RTD_1.c ****     const int32 CYCODE RTD_1_coeffPos[] = { -6576679, 30545721, -34422451, 146602132, -278862068, 2
ARM GAS  C:\Users\nico_\AppData\Local\Temp\ccfP5YAd.s 			page 4


  83:Generated_Source\PSoC5/RTD_1.c ****     const int32 CYCODE RTD_1_coeffNeg[] = { -24840535, 96778662, 34796121, 16032724, -204779973, 30
  84:Generated_Source\PSoC5/RTD_1.c **** 
  85:Generated_Source\PSoC5/RTD_1.c ****     uint8 i=0u;
  86:Generated_Source\PSoC5/RTD_1.c ****     float32 resNorm=0.0f;
  87:Generated_Source\PSoC5/RTD_1.c ****     float32 temp=0.0f;
  88:Generated_Source\PSoC5/RTD_1.c **** 
  89:Generated_Source\PSoC5/RTD_1.c ****     resNorm = (float32)res;
  90:Generated_Source\PSoC5/RTD_1.c **** 
  91:Generated_Source\PSoC5/RTD_1.c ****     if (((RTD_1_RTD_TYPE == (uint32)RTD_1__PT100) && (res > RTD_1_ZERO_VAL_PT100)) ||
  92:Generated_Source\PSoC5/RTD_1.c ****         ((RTD_1_RTD_TYPE == (uint32)RTD_1__PT500) && (res > RTD_1_ZERO_VAL_PT500)) ||
  93:Generated_Source\PSoC5/RTD_1.c ****         ((RTD_1_RTD_TYPE == (uint32)RTD_1__PT1000) && (res > RTD_1_ZERO_VAL_PT1000)))
  94:Generated_Source\PSoC5/RTD_1.c ****     {
  95:Generated_Source\PSoC5/RTD_1.c ****          /* Temperature above 0 degrees C */
  96:Generated_Source\PSoC5/RTD_1.c ****         for (i = RTD_1_ORDER_POS - 1u; i > 0u; i--)
  97:Generated_Source\PSoC5/RTD_1.c ****         {
  98:Generated_Source\PSoC5/RTD_1.c ****             temp = (RTD_1_coeffPos[i] + temp) * resNorm;
  99:Generated_Source\PSoC5/RTD_1.c ****         }
 100:Generated_Source\PSoC5/RTD_1.c ****         temp = temp + RTD_1_coeffPos[RTD_1_FIRST_EL_MAS];
 101:Generated_Source\PSoC5/RTD_1.c ****     }
 102:Generated_Source\PSoC5/RTD_1.c ****     else
 103:Generated_Source\PSoC5/RTD_1.c ****     {
 104:Generated_Source\PSoC5/RTD_1.c ****         /* Temperature below 0 degrees C */
 105:Generated_Source\PSoC5/RTD_1.c ****         for (i = RTD_1_ORDER_NEG - 1u; i > 0u; i--)
 106:Generated_Source\PSoC5/RTD_1.c ****         {
 107:Generated_Source\PSoC5/RTD_1.c ****             temp = (RTD_1_coeffNeg[i] + temp) * resNorm;
 108:Generated_Source\PSoC5/RTD_1.c ****         }
 109:Generated_Source\PSoC5/RTD_1.c ****         temp = temp + RTD_1_coeffNeg[RTD_1_FIRST_EL_MAS];
 110:Generated_Source\PSoC5/RTD_1.c ****     }
 111:Generated_Source\PSoC5/RTD_1.c ****     return ((int32)(temp));
 112:Generated_Source\PSoC5/RTD_1.c **** }
 113:Generated_Source\PSoC5/RTD_1.c **** #else
 114:Generated_Source\PSoC5/RTD_1.c **** {
  90              		.loc 1 114 0
  91              		.cfi_startproc
  92              		@ args = 0, pretend = 0, frame = 48
  93              		@ frame_needed = 0, uses_anonymous_args = 0
  94              	.LVL13:
  95 0000 F0B5     		push	{r4, r5, r6, r7, lr}
  96              		.cfi_def_cfa_offset 20
  97              		.cfi_offset 4, -20
  98              		.cfi_offset 5, -16
  99              		.cfi_offset 6, -12
 100              		.cfi_offset 7, -8
 101              		.cfi_offset 14, -4
 102 0002 8DB0     		sub	sp, sp, #52
 103              		.cfi_def_cfa_offset 72
 104 0004 0746     		mov	r7, r0
 115:Generated_Source\PSoC5/RTD_1.c ****     /***************************************
 116:Generated_Source\PSoC5/RTD_1.c ****     *  Customizer Generated Coefficients
 117:Generated_Source\PSoC5/RTD_1.c ****     ***************************************/
 118:Generated_Source\PSoC5/RTD_1.c ****     const int32 CYCODE RTD_1_coeffPos[] = { -6576679, 30545721, -34422451, 146602132, -278862068, 2
 105              		.loc 1 118 0
 106 0006 224C     		ldr	r4, .L13
 107 0008 06AD     		add	r5, sp, #24
 108 000a 2646     		mov	r6, r4
 109 000c 0FCE     		ldmia	r6!, {r0, r1, r2, r3}
 110              	.LVL14:
ARM GAS  C:\Users\nico_\AppData\Local\Temp\ccfP5YAd.s 			page 5


 111 000e 0FC5     		stmia	r5!, {r0, r1, r2, r3}
 112 0010 96E80300 		ldmia	r6, {r0, r1}
 113 0014 85E80300 		stmia	r5, {r0, r1}
 119:Generated_Source\PSoC5/RTD_1.c ****     const int32 CYCODE RTD_1_coeffNeg[] = { -24840535, 96778662, 34796121, 16032724, -204779973, 30
 114              		.loc 1 119 0
 115 0018 6D46     		mov	r5, sp
 116 001a 1834     		adds	r4, r4, #24
 117 001c 0FCC     		ldmia	r4!, {r0, r1, r2, r3}
 118 001e 0FC5     		stmia	r5!, {r0, r1, r2, r3}
 119 0020 94E80300 		ldmia	r4, {r0, r1}
 120 0024 85E80300 		stmia	r5, {r0, r1}
 121              	.LVL15:
 120:Generated_Source\PSoC5/RTD_1.c **** 
 121:Generated_Source\PSoC5/RTD_1.c ****     uint8 i;
 122:Generated_Source\PSoC5/RTD_1.c ****     int32 temp=0;
 123:Generated_Source\PSoC5/RTD_1.c **** 
 124:Generated_Source\PSoC5/RTD_1.c ****     if (((RTD_1_RTD_TYPE == (uint32)RTD_1__PT100) && (res > RTD_1_ZERO_VAL_PT100)) ||
 122              		.loc 1 124 0
 123 0028 1A4B     		ldr	r3, .L13+4
 124 002a 9F42     		cmp	r7, r3
 125 002c 17D9     		bls	.L6
 125:Generated_Source\PSoC5/RTD_1.c ****         ((RTD_1_RTD_TYPE == (uint32)RTD_1__PT500) && (res > RTD_1_ZERO_VAL_PT500)) ||
 126:Generated_Source\PSoC5/RTD_1.c ****         ((RTD_1_RTD_TYPE == (uint32)RTD_1__PT1000) && (res > RTD_1_ZERO_VAL_PT1000)))
 127:Generated_Source\PSoC5/RTD_1.c ****     {
 128:Generated_Source\PSoC5/RTD_1.c ****          /* Temperature above 0 degrees C */
 129:Generated_Source\PSoC5/RTD_1.c ****         res = res << (RTD_1_IN_NORMALIZATION - RTD_1_POS_INPUT_SCALE);
 126              		.loc 1 129 0
 127 002e BD00     		lsls	r5, r7, #2
 128              	.LVL16:
 122:Generated_Source\PSoC5/RTD_1.c **** 
 129              		.loc 1 122 0
 130 0030 0020     		movs	r0, #0
 130:Generated_Source\PSoC5/RTD_1.c **** 
 131:Generated_Source\PSoC5/RTD_1.c ****         for (i = RTD_1_ORDER_POS - 1u; i > 0u; i--)
 131              		.loc 1 131 0
 132 0032 0524     		movs	r4, #5
 133 0034 0AE0     		b	.L7
 134              	.LVL17:
 135              	.L8:
 132:Generated_Source\PSoC5/RTD_1.c ****         {
 133:Generated_Source\PSoC5/RTD_1.c ****             temp = RTD_1_MultShift24((RTD_1_coeffPos[i] + temp), res);
 136              		.loc 1 133 0 discriminator 3
 137 0036 0CAB     		add	r3, sp, #48
 138 0038 03EB8403 		add	r3, r3, r4, lsl #2
 139 003c 53F8183C 		ldr	r3, [r3, #-24]
 140 0040 2946     		mov	r1, r5
 141 0042 1844     		add	r0, r0, r3
 142              	.LVL18:
 143 0044 FFF7FEFF 		bl	RTD_1_MultShift24
 144              	.LVL19:
 131:Generated_Source\PSoC5/RTD_1.c ****         {
 145              		.loc 1 131 0 discriminator 3
 146 0048 013C     		subs	r4, r4, #1
 147              	.LVL20:
 148 004a E4B2     		uxtb	r4, r4
 149              	.LVL21:
 150              	.L7:
ARM GAS  C:\Users\nico_\AppData\Local\Temp\ccfP5YAd.s 			page 6


 131:Generated_Source\PSoC5/RTD_1.c ****         {
 151              		.loc 1 131 0 is_stmt 0 discriminator 1
 152 004c 002C     		cmp	r4, #0
 153 004e F2D1     		bne	.L8
 134:Generated_Source\PSoC5/RTD_1.c ****         }
 135:Generated_Source\PSoC5/RTD_1.c ****         temp = (int32)((uint32)((uint64)(int32)(temp + RTD_1_coeffPos[RTD_1_FIRST_EL_MAS]) >> 
 154              		.loc 1 135 0 is_stmt 1
 155 0050 114B     		ldr	r3, .L13+8
 156 0052 0344     		add	r3, r3, r0
 157 0054 D917     		asrs	r1, r3, #31
 158 0056 1B0A     		lsrs	r3, r3, #8
 159 0058 43EA0160 		orr	r0, r3, r1, lsl #24
 160              	.LVL22:
 161 005c 16E0     		b	.L9
 162              	.LVL23:
 163              	.L6:
 136:Generated_Source\PSoC5/RTD_1.c ****                        RTD_1_POS_COEFF_SCALE));
 137:Generated_Source\PSoC5/RTD_1.c ****     }
 138:Generated_Source\PSoC5/RTD_1.c **** 
 139:Generated_Source\PSoC5/RTD_1.c ****     else
 140:Generated_Source\PSoC5/RTD_1.c ****     {
 141:Generated_Source\PSoC5/RTD_1.c ****         /* Temperature below 0 degrees C */
 142:Generated_Source\PSoC5/RTD_1.c ****         res = res << (RTD_1_IN_NORMALIZATION - RTD_1_NEG_INPUT_SCALE);
 164              		.loc 1 142 0
 165 005e BD00     		lsls	r5, r7, #2
 166              	.LVL24:
 122:Generated_Source\PSoC5/RTD_1.c **** 
 167              		.loc 1 122 0
 168 0060 0020     		movs	r0, #0
 143:Generated_Source\PSoC5/RTD_1.c **** 
 144:Generated_Source\PSoC5/RTD_1.c ****         for (i = RTD_1_ORDER_NEG - 1u; i > 0u; i--)
 169              		.loc 1 144 0
 170 0062 0524     		movs	r4, #5
 171 0064 0AE0     		b	.L10
 172              	.LVL25:
 173              	.L11:
 145:Generated_Source\PSoC5/RTD_1.c ****         {
 146:Generated_Source\PSoC5/RTD_1.c ****             temp = RTD_1_MultShift24((RTD_1_coeffNeg[i] + temp), res);
 174              		.loc 1 146 0 discriminator 3
 175 0066 0CAB     		add	r3, sp, #48
 176 0068 03EB8403 		add	r3, r3, r4, lsl #2
 177 006c 53F8303C 		ldr	r3, [r3, #-48]
 178 0070 2946     		mov	r1, r5
 179 0072 1844     		add	r0, r0, r3
 180              	.LVL26:
 181 0074 FFF7FEFF 		bl	RTD_1_MultShift24
 182              	.LVL27:
 144:Generated_Source\PSoC5/RTD_1.c ****         {
 183              		.loc 1 144 0 discriminator 3
 184 0078 013C     		subs	r4, r4, #1
 185              	.LVL28:
 186 007a E4B2     		uxtb	r4, r4
 187              	.LVL29:
 188              	.L10:
 144:Generated_Source\PSoC5/RTD_1.c ****         {
 189              		.loc 1 144 0 is_stmt 0 discriminator 1
 190 007c 002C     		cmp	r4, #0
ARM GAS  C:\Users\nico_\AppData\Local\Temp\ccfP5YAd.s 			page 7


 191 007e F2D1     		bne	.L11
 147:Generated_Source\PSoC5/RTD_1.c ****         }
 148:Generated_Source\PSoC5/RTD_1.c **** 
 149:Generated_Source\PSoC5/RTD_1.c ****         temp = (int32)((uint32)((uint64)(int32)(temp + RTD_1_coeffNeg[RTD_1_FIRST_EL_MAS]) >> 
 192              		.loc 1 149 0 is_stmt 1
 193 0080 064B     		ldr	r3, .L13+12
 194 0082 0344     		add	r3, r3, r0
 195 0084 D917     		asrs	r1, r3, #31
 196 0086 9B0A     		lsrs	r3, r3, #10
 197 0088 43EA8150 		orr	r0, r3, r1, lsl #22
 198              	.LVL30:
 199              	.L9:
 150:Generated_Source\PSoC5/RTD_1.c ****                        RTD_1_NEG_COEFF_SCALE));
 151:Generated_Source\PSoC5/RTD_1.c ****     }
 152:Generated_Source\PSoC5/RTD_1.c ****     return (temp);
 153:Generated_Source\PSoC5/RTD_1.c **** }
 200              		.loc 1 153 0
 201 008c 0DB0     		add	sp, sp, #52
 202              		.cfi_def_cfa_offset 20
 203              		@ sp needed
 204 008e F0BD     		pop	{r4, r5, r6, r7, pc}
 205              	.LVL31:
 206              	.L14:
 207              		.align	2
 208              	.L13:
 209 0090 00000000 		.word	.LANCHOR0
 210 0094 40420F00 		.word	1000000
 211 0098 D9A59BFF 		.word	-6576679
 212 009c A9F684FE 		.word	-24840535
 213              		.cfi_endproc
 214              	.LFE1:
 215              		.size	RTD_1_GetTemperature, .-RTD_1_GetTemperature
 216              		.section	.rodata
 217              		.align	2
 218              		.set	.LANCHOR0,. + 0
 219              	.LC0:
 220 0000 D9A59BFF 		.word	-6576679
 221 0004 3917D201 		.word	30545721
 222 0008 4DC1F2FD 		.word	-34422451
 223 000c 94F8BC08 		.word	146602132
 224 0010 0CE760EF 		.word	-278862068
 225 0014 57A6C20C 		.word	214083159
 226              	.LC1:
 227 0018 A9F684FE 		.word	-24840535
 228 001c A6B9C405 		.word	96778662
 229 0020 59F21202 		.word	34796121
 230 0024 D4A3F400 		.word	16032724
 231 0028 3B4ECBF3 		.word	-204779973
 232 002c F7670A12 		.word	302671863
 233              		.text
 234              	.Letext0:
 235              		.file 2 "Generated_Source\\PSoC5\\cytypes.h"