ARM GAS  C:\Users\nico_\AppData\Local\Temp\cce3LmLi.s 			page 1


   1              		.syntax unified
   2              		.cpu cortex-m3
   3              		.fpu softvfp
   4              		.eabi_attribute 20, 1
   5              		.eabi_attribute 21, 1
   6              		.eabi_attribute 23, 3
   7              		.eabi_attribute 24, 1
   8              		.eabi_attribute 25, 1
   9              		.eabi_attribute 26, 1
  10              		.eabi_attribute 30, 1
  11              		.eabi_attribute 34, 1
  12              		.eabi_attribute 18, 4
  13              		.thumb
  14              		.syntax unified
  15              		.file	"switch.c"
  16              		.text
  17              	.Ltext0:
  18              		.cfi_sections	.debug_frame
  19              		.section	.text.switch_newState,"ax",%progbits
  20              		.align	2
  21              		.global	switch_newState
  22              		.thumb
  23              		.thumb_func
  24              		.type	switch_newState, %function
  25              	switch_newState:
  26              	.LFB3:
  27              		.file 1 "switch.c"
   1:switch.c      **** /* ========================================
   2:switch.c      ****  *
   3:switch.c      ****  * Copyright YOUR COMPANY, THE YEAR
   4:switch.c      ****  * All Rights Reserved
   5:switch.c      ****  * UNPUBLISHED, LICENSED SOFTWARE.
   6:switch.c      ****  *
   7:switch.c      ****  * CONFIDENTIAL AND PROPRIETARY INFORMATION
   8:switch.c      ****  * WHICH IS THE PROPERTY OF your company.
   9:switch.c      ****  *
  10:switch.c      ****  * ========================================
  11:switch.c      **** */
  12:switch.c      **** 
  13:switch.c      **** #include "switch.h"
  14:switch.c      **** #include "UART_1.h"
  15:switch.c      **** 
  16:switch.c      **** /*Setup interrupt handler*/
  17:switch.c      **** CY_ISR_PROTO(switch_newState);
  18:switch.c      **** 
  19:switch.c      **** /* Declared functions for Switch class*/
  20:switch.c      **** CY_ISR(switch_newState);
  21:switch.c      **** 
  22:switch.c      **** /* Do inital setup of interrupt and internal state*/
  23:switch.c      **** void Switch_Setup()
  24:switch.c      **** {
  25:switch.c      ****     //Set High input to the switch priming it.
  26:switch.c      ****     Switch_Startup();
  27:switch.c      ****     
  28:switch.c      ****     //Enable the interrupt on the switch.
  29:switch.c      ****     switch_input_interrupt_StartEx(switch_newState);
  30:switch.c      **** 
ARM GAS  C:\Users\nico_\AppData\Local\Temp\cce3LmLi.s 			page 2


  31:switch.c      ****     
  32:switch.c      **** }
  33:switch.c      **** 
  34:switch.c      **** /*Controlled shutdown on switch, shutoff the input power for the switch disabling it*/
  35:switch.c      **** void Switch_Shutdown()
  36:switch.c      **** {
  37:switch.c      ****     Switch_output_Write(0);
  38:switch.c      **** }
  39:switch.c      **** 
  40:switch.c      **** /*Startup of the switch. Enable the input power enabling the switch*/
  41:switch.c      **** void Switch_Startup()
  42:switch.c      **** {
  43:switch.c      ****     Switch_output_Write(255);
  44:switch.c      **** }
  45:switch.c      **** 
  46:switch.c      **** /*Interrupt handler for the switch interrupt*/
  47:switch.c      **** CY_ISR(switch_newState)
  48:switch.c      **** {    
  28              		.loc 1 48 0
  29              		.cfi_startproc
  30              		@ args = 0, pretend = 0, frame = 0
  31              		@ frame_needed = 0, uses_anonymous_args = 0
  32 0000 08B5     		push	{r3, lr}
  33              		.cfi_def_cfa_offset 8
  34              		.cfi_offset 3, -8
  35              		.cfi_offset 14, -4
  49:switch.c      ****     UART_1_PutString("Switch has been triggered \r\n");
  36              		.loc 1 49 0
  37 0002 0448     		ldr	r0, .L3
  38 0004 FFF7FEFF 		bl	UART_1_PutString
  39              	.LVL0:
  50:switch.c      ****     /*Clears interrupts and enable detection of future interrupts*/
  51:switch.c      ****     Switch_input_ClearInterrupt();
  40              		.loc 1 51 0
  41 0008 FFF7FEFF 		bl	Switch_input_ClearInterrupt
  42              	.LVL1:
  52:switch.c      ****     
  53:switch.c      **** 
  54:switch.c      ****     //Call system controller that new state is triggered.
  55:switch.c      ****     System_newState();
  43              		.loc 1 55 0
  44 000c FFF7FEFF 		bl	System_newState
  45              	.LVL2:
  46 0010 08BD     		pop	{r3, pc}
  47              	.L4:
  48 0012 00BF     		.align	2
  49              	.L3:
  50 0014 00000000 		.word	.LC0
  51              		.cfi_endproc
  52              	.LFE3:
  53              		.size	switch_newState, .-switch_newState
  54              		.section	.text.Switch_Shutdown,"ax",%progbits
  55              		.align	2
  56              		.global	Switch_Shutdown
  57              		.thumb
  58              		.thumb_func
  59              		.type	Switch_Shutdown, %function
ARM GAS  C:\Users\nico_\AppData\Local\Temp\cce3LmLi.s 			page 3


  60              	Switch_Shutdown:
  61              	.LFB1:
  36:switch.c      ****     Switch_output_Write(0);
  62              		.loc 1 36 0
  63              		.cfi_startproc
  64              		@ args = 0, pretend = 0, frame = 0
  65              		@ frame_needed = 0, uses_anonymous_args = 0
  66 0000 08B5     		push	{r3, lr}
  67              		.cfi_def_cfa_offset 8
  68              		.cfi_offset 3, -8
  69              		.cfi_offset 14, -4
  37:switch.c      **** }
  70              		.loc 1 37 0
  71 0002 0020     		movs	r0, #0
  72 0004 FFF7FEFF 		bl	Switch_output_Write
  73              	.LVL3:
  74 0008 08BD     		pop	{r3, pc}
  75              		.cfi_endproc
  76              	.LFE1:
  77              		.size	Switch_Shutdown, .-Switch_Shutdown
  78 000a 00BF     		.section	.text.Switch_Startup,"ax",%progbits
  79              		.align	2
  80              		.global	Switch_Startup
  81              		.thumb
  82              		.thumb_func
  83              		.type	Switch_Startup, %function
  84              	Switch_Startup:
  85              	.LFB2:
  42:switch.c      ****     Switch_output_Write(255);
  86              		.loc 1 42 0
  87              		.cfi_startproc
  88              		@ args = 0, pretend = 0, frame = 0
  89              		@ frame_needed = 0, uses_anonymous_args = 0
  90 0000 08B5     		push	{r3, lr}
  91              		.cfi_def_cfa_offset 8
  92              		.cfi_offset 3, -8
  93              		.cfi_offset 14, -4
  43:switch.c      **** }
  94              		.loc 1 43 0
  95 0002 FF20     		movs	r0, #255
  96 0004 FFF7FEFF 		bl	Switch_output_Write
  97              	.LVL4:
  98 0008 08BD     		pop	{r3, pc}
  99              		.cfi_endproc
 100              	.LFE2:
 101              		.size	Switch_Startup, .-Switch_Startup
 102 000a 00BF     		.section	.text.Switch_Setup,"ax",%progbits
 103              		.align	2
 104              		.global	Switch_Setup
 105              		.thumb
 106              		.thumb_func
 107              		.type	Switch_Setup, %function
 108              	Switch_Setup:
 109              	.LFB0:
  24:switch.c      ****     //Set High input to the switch priming it.
 110              		.loc 1 24 0
 111              		.cfi_startproc
ARM GAS  C:\Users\nico_\AppData\Local\Temp\cce3LmLi.s 			page 4


 112              		@ args = 0, pretend = 0, frame = 0
 113              		@ frame_needed = 0, uses_anonymous_args = 0
 114 0000 08B5     		push	{r3, lr}
 115              		.cfi_def_cfa_offset 8
 116              		.cfi_offset 3, -8
 117              		.cfi_offset 14, -4
  26:switch.c      ****     
 118              		.loc 1 26 0
 119 0002 FFF7FEFF 		bl	Switch_Startup
 120              	.LVL5:
  29:switch.c      **** 
 121              		.loc 1 29 0
 122 0006 0248     		ldr	r0, .L11
 123 0008 FFF7FEFF 		bl	switch_input_interrupt_StartEx
 124              	.LVL6:
 125 000c 08BD     		pop	{r3, pc}
 126              	.L12:
 127 000e 00BF     		.align	2
 128              	.L11:
 129 0010 00000000 		.word	switch_newState
 130              		.cfi_endproc
 131              	.LFE0:
 132              		.size	Switch_Setup, .-Switch_Setup
 133              		.section	.rodata.str1.4,"aMS",%progbits,1
 134              		.align	2
 135              	.LC0:
 136 0000 53776974 		.ascii	"Switch has been triggered \015\012\000"
 136      63682068 
 136      61732062 
 136      65656E20 
 136      74726967 
 137              		.text
 138              	.Letext0:
 139              		.file 2 "Generated_Source\\PSoC5/UART_1.h"
 140              		.file 3 "Generated_Source\\PSoC5/Switch_input.h"
 141              		.file 4 "SystemController_interrupt.h"
 142              		.file 5 "Generated_Source\\PSoC5/Switch_output.h"
 143              		.file 6 "Generated_Source\\PSoC5/switch_input_interrupt.h"