ARM GAS  C:\Users\nico_\AppData\Local\Temp\cczhkDkS.s 			page 1


   1              		.syntax unified
   2              		.cpu cortex-m3
   3              		.fpu softvfp
   4              		.eabi_attribute 20, 1
   5              		.eabi_attribute 21, 1
   6              		.eabi_attribute 23, 3
   7              		.eabi_attribute 24, 1
   8              		.eabi_attribute 25, 1
   9              		.eabi_attribute 26, 1
  10              		.eabi_attribute 30, 1
  11              		.eabi_attribute 34, 1
  12              		.eabi_attribute 18, 4
  13              		.thumb
  14              		.syntax unified
  15              		.file	"Switch_test.c"
  16              		.text
  17              	.Ltext0:
  18              		.cfi_sections	.debug_frame
  19              		.section	.text.switch_newState_test,"ax",%progbits
  20              		.align	2
  21              		.global	switch_newState_test
  22              		.thumb
  23              		.thumb_func
  24              		.type	switch_newState_test, %function
  25              	switch_newState_test:
  26              	.LFB1:
  27              		.file 1 "Switch_test.c"
   1:Switch_test.c **** /* ========================================
   2:Switch_test.c ****  *
   3:Switch_test.c ****  * Copyright YOUR COMPANY, THE YEAR
   4:Switch_test.c ****  * All Rights Reserved
   5:Switch_test.c ****  * UNPUBLISHED, LICENSED SOFTWARE.
   6:Switch_test.c ****  *
   7:Switch_test.c ****  * CONFIDENTIAL AND PROPRIETARY INFORMATION
   8:Switch_test.c ****  * WHICH IS THE PROPERTY OF your company.
   9:Switch_test.c ****  *
  10:Switch_test.c ****  * ========================================
  11:Switch_test.c **** */
  12:Switch_test.c **** #include "Switch_test.h"
  13:Switch_test.c **** 
  14:Switch_test.c **** 
  15:Switch_test.c **** 
  16:Switch_test.c **** void Switch_test_run()
  17:Switch_test.c **** {
  18:Switch_test.c ****     //Set voltage to HW switch input pin to high.  
  19:Switch_test.c ****     Switch_output_Write(255);
  20:Switch_test.c ****     UART_1_Start();
  21:Switch_test.c ****     switch_input_interrupt_StartEx(switch_newState_test);
  22:Switch_test.c ****     UART_1_PutString("Switch test has been started \r\n");
  23:Switch_test.c ****     
  24:Switch_test.c ****     for(;;)
  25:Switch_test.c ****     {
  26:Switch_test.c ****     }
  27:Switch_test.c **** }
  28:Switch_test.c **** 
  29:Switch_test.c **** CY_ISR(switch_newState_test)
  30:Switch_test.c **** {
ARM GAS  C:\Users\nico_\AppData\Local\Temp\cczhkDkS.s 			page 2


  28              		.loc 1 30 0
  29              		.cfi_startproc
  30              		@ args = 0, pretend = 0, frame = 0
  31              		@ frame_needed = 0, uses_anonymous_args = 0
  32 0000 08B5     		push	{r3, lr}
  33              		.cfi_def_cfa_offset 8
  34              		.cfi_offset 3, -8
  35              		.cfi_offset 14, -4
  31:Switch_test.c ****     UART_1_PutString("Switch has been triggered \r\n");
  36              		.loc 1 31 0
  37 0002 0348     		ldr	r0, .L3
  38 0004 FFF7FEFF 		bl	UART_1_PutString
  39              	.LVL0:
  32:Switch_test.c ****     /*Clears interrupts and enable detection of future interrupts*/
  33:Switch_test.c ****     Switch_input_ClearInterrupt();
  40              		.loc 1 33 0
  41 0008 FFF7FEFF 		bl	Switch_input_ClearInterrupt
  42              	.LVL1:
  43 000c 08BD     		pop	{r3, pc}
  44              	.L4:
  45 000e 00BF     		.align	2
  46              	.L3:
  47 0010 00000000 		.word	.LC0
  48              		.cfi_endproc
  49              	.LFE1:
  50              		.size	switch_newState_test, .-switch_newState_test
  51              		.section	.text.Switch_test_run,"ax",%progbits
  52              		.align	2
  53              		.global	Switch_test_run
  54              		.thumb
  55              		.thumb_func
  56              		.type	Switch_test_run, %function
  57              	Switch_test_run:
  58              	.LFB0:
  17:Switch_test.c ****     //Set voltage to HW switch input pin to high.  
  59              		.loc 1 17 0
  60              		.cfi_startproc
  61              		@ Volatile: function does not return.
  62              		@ args = 0, pretend = 0, frame = 0
  63              		@ frame_needed = 0, uses_anonymous_args = 0
  64 0000 08B5     		push	{r3, lr}
  65              		.cfi_def_cfa_offset 8
  66              		.cfi_offset 3, -8
  67              		.cfi_offset 14, -4
  19:Switch_test.c ****     UART_1_Start();
  68              		.loc 1 19 0
  69 0002 FF20     		movs	r0, #255
  70 0004 FFF7FEFF 		bl	Switch_output_Write
  71              	.LVL2:
  20:Switch_test.c ****     switch_input_interrupt_StartEx(switch_newState_test);
  72              		.loc 1 20 0
  73 0008 FFF7FEFF 		bl	UART_1_Start
  74              	.LVL3:
  21:Switch_test.c ****     UART_1_PutString("Switch test has been started \r\n");
  75              		.loc 1 21 0
  76 000c 0348     		ldr	r0, .L8
  77 000e FFF7FEFF 		bl	switch_input_interrupt_StartEx
ARM GAS  C:\Users\nico_\AppData\Local\Temp\cczhkDkS.s 			page 3


  78              	.LVL4:
  22:Switch_test.c ****     
  79              		.loc 1 22 0
  80 0012 0348     		ldr	r0, .L8+4
  81 0014 FFF7FEFF 		bl	UART_1_PutString
  82              	.LVL5:
  83              	.L6:
  84 0018 FEE7     		b	.L6
  85              	.L9:
  86 001a 00BF     		.align	2
  87              	.L8:
  88 001c 00000000 		.word	switch_newState_test
  89 0020 20000000 		.word	.LC1
  90              		.cfi_endproc
  91              	.LFE0:
  92              		.size	Switch_test_run, .-Switch_test_run
  93              		.section	.rodata.str1.4,"aMS",%progbits,1
  94              		.align	2
  95              	.LC0:
  96 0000 53776974 		.ascii	"Switch has been triggered \015\012\000"
  96      63682068 
  96      61732062 
  96      65656E20 
  96      74726967 
  97 001d 000000   		.space	3
  98              	.LC1:
  99 0020 53776974 		.ascii	"Switch test has been started \015\012\000"
  99      63682074 
  99      65737420 
  99      68617320 
  99      6265656E 
 100              		.text
 101              	.Letext0:
 102              		.file 2 "Generated_Source\\PSoC5/UART_1.h"
 103              		.file 3 "Generated_Source\\PSoC5/Switch_input.h"
 104              		.file 4 "Generated_Source\\PSoC5/Switch_output.h"
 105              		.file 5 "Generated_Source\\PSoC5/switch_input_interrupt.h"