ARM GAS  C:\Users\nico_\AppData\Local\Temp\ccnFPTLG.s 			page 1


   1              		.syntax unified
   2              		.cpu cortex-m3
   3              		.fpu softvfp
   4              		.eabi_attribute 20, 1
   5              		.eabi_attribute 21, 1
   6              		.eabi_attribute 23, 3
   7              		.eabi_attribute 24, 1
   8              		.eabi_attribute 25, 1
   9              		.eabi_attribute 26, 1
  10              		.eabi_attribute 30, 1
  11              		.eabi_attribute 34, 1
  12              		.eabi_attribute 18, 4
  13              		.thumb
  14              		.syntax unified
  15              		.file	"SystemController.c"
  16              		.text
  17              	.Ltext0:
  18              		.cfi_sections	.debug_frame
  19              		.global	__aeabi_f2d
  20              		.global	__aeabi_ui2f
  21              		.global	__aeabi_fcmpeq
  22              		.section	.text.ISR_CLOCK_handler,"ax",%progbits
  23              		.align	2
  24              		.global	ISR_CLOCK_handler
  25              		.thumb
  26              		.thumb_func
  27              		.type	ISR_CLOCK_handler, %function
  28              	ISR_CLOCK_handler:
  29              	.LFB69:
  30              		.file 1 "SystemController.c"
   1:SystemController.c **** /* ========================================
   2:SystemController.c ****  *
   3:SystemController.c ****  * Copyright YOUR COMPANY, THE YEAR
   4:SystemController.c ****  * All Rights Reserved
   5:SystemController.c ****  * UNPUBLISHED, LICENSED SOFTWARE.
   6:SystemController.c ****  *
   7:SystemController.c ****  * CONFIDENTIAL AND PROPRIETARY INFORMATION
   8:SystemController.c ****  * WHICH IS THE PROPERTY OF your company.
   9:SystemController.c ****  *
  10:SystemController.c ****  * ========================================
  11:SystemController.c **** */
  12:SystemController.c **** 
  13:SystemController.c **** #include "SystemController.h"
  14:SystemController.c **** #include "RTD_1.h"
  15:SystemController.c **** 
  16:SystemController.c **** /*Function delcations*/
  17:SystemController.c **** void System_Setup();
  18:SystemController.c **** void System_On();
  19:SystemController.c **** void System_Off();
  20:SystemController.c **** CY_ISR_PROTO(ISR_CLOCK_handler);
  21:SystemController.c **** 
  22:SystemController.c **** /*Varible decleration*/
  23:SystemController.c **** uint8 Switch_State;
  24:SystemController.c **** uint16 rtd_ratio ;
  25:SystemController.c **** uint16 ref_res = 4300; //Reference resistance on the amplifier circuit
  26:SystemController.c **** float last_regu;
  27:SystemController.c **** float regu;
ARM GAS  C:\Users\nico_\AppData\Local\Temp\ccnFPTLG.s 			page 2


  28:SystemController.c **** 
  29:SystemController.c **** 
  30:SystemController.c **** int main(void)
  31:SystemController.c **** {   
  32:SystemController.c **** 
  33:SystemController.c ****     
  34:SystemController.c **** 
  35:SystemController.c ****     System_Setup();
  36:SystemController.c **** 
  37:SystemController.c ****     
  38:SystemController.c ****     /*Wait for interrupts*/
  39:SystemController.c ****     for(;;)
  40:SystemController.c ****     {
  41:SystemController.c ****        
  42:SystemController.c ****     }
  43:SystemController.c ****  
  44:SystemController.c **** }
  45:SystemController.c **** 
  46:SystemController.c **** //Initial setup upon Powering the PSOC
  47:SystemController.c **** void System_Setup()
  48:SystemController.c **** {
  49:SystemController.c ****     /* Enable global interrupts. */
  50:SystemController.c ****     CyGlobalIntEnable; 
  51:SystemController.c ****     //System is off, set state to 0.
  52:SystemController.c ****     Switch_State = 0;
  53:SystemController.c ****     last_regu = 0;
  54:SystemController.c ****        
  55:SystemController.c ****     /*Start UART*/
  56:SystemController.c ****     UART_1_Start();
  57:SystemController.c ****     
  58:SystemController.c ****     /*Set up input voltage to HIGH on HW switch input pin*/     
  59:SystemController.c ****     Switch_Setup();
  60:SystemController.c ****     
  61:SystemController.c ****     /*Setup the two VDAC and the PGA. Stop pump from starting because of setup of transistor*/
  62:SystemController.c ****     Pump_Setup();
  63:SystemController.c ****      
  64:SystemController.c ****     /*Setup SPI and then the amplifier*/
  65:SystemController.c ****     Amplifier_Setup();
  66:SystemController.c ****     
  67:SystemController.c ****     /*Setup the Temperature domain class with reference resistance value*/
  68:SystemController.c ****     Temperature_Setup(ref_res);
  69:SystemController.c ****     
  70:SystemController.c ****     Regulation_setup();
  71:SystemController.c ****             
  72:SystemController.c **** }
  73:SystemController.c **** 
  74:SystemController.c **** 
  75:SystemController.c **** 
  76:SystemController.c **** /*Turn system On after being in system off state*/
  77:SystemController.c **** void System_On()
  78:SystemController.c **** {
  79:SystemController.c ****     //Start up the amplifier to get new temperature conversion
  80:SystemController.c ****     Amplifier_Startup();
  81:SystemController.c ****     
  82:SystemController.c ****     //Start up the pump
  83:SystemController.c ****     Pump_Startup(2500);
  84:SystemController.c ****     
ARM GAS  C:\Users\nico_\AppData\Local\Temp\ccnFPTLG.s 			page 3


  85:SystemController.c ****     /*Start counter for sampling the temperature*/
  86:SystemController.c ****     Temp_sample_counter_Start();
  87:SystemController.c ****     Clock_TempSampling_Start();
  88:SystemController.c ****     isr_clock_StartEx(ISR_CLOCK_handler); 
  89:SystemController.c ****     
  90:SystemController.c ****     //Turn on indicator LED
  91:SystemController.c ****     Turn_ON();
  92:SystemController.c **** }
  93:SystemController.c **** 
  94:SystemController.c **** /*Turn system off after being in system on state*/
  95:SystemController.c **** void System_Off()
  96:SystemController.c **** {
  97:SystemController.c ****     //Stop the clock interrupt routine
  98:SystemController.c ****     isr_clock_Disable();
  99:SystemController.c ****     
 100:SystemController.c ****     //Stop the clock of the temperature sampling
 101:SystemController.c ****     Temp_sample_counter_Stop();
 102:SystemController.c ****     Clock_TempSampling_Stop();
 103:SystemController.c ****     
 104:SystemController.c ****     //Shut down the pump
 105:SystemController.c ****     Pump_Shutdown();
 106:SystemController.c ****     
 107:SystemController.c ****     //Shutdown the amplifier
 108:SystemController.c ****     Amplifier_Shutdown();
 109:SystemController.c ****     
 110:SystemController.c ****     //Turn off the indicator LED
 111:SystemController.c ****     Turn_OFF();
 112:SystemController.c ****     
 113:SystemController.c **** }
 114:SystemController.c **** 
 115:SystemController.c **** 
 116:SystemController.c **** 
 117:SystemController.c **** 
 118:SystemController.c **** void System_newState(uint8 switchstate)
 119:SystemController.c **** {
 120:SystemController.c ****     Switch_State = switchstate;
 121:SystemController.c ****     
 122:SystemController.c ****     if(Switch_State)
 123:SystemController.c ****     {
 124:SystemController.c ****         //Turn system on. 
 125:SystemController.c ****         System_On();
 126:SystemController.c ****         
 127:SystemController.c ****     }else
 128:SystemController.c ****     {
 129:SystemController.c ****         //Turn system off. 
 130:SystemController.c ****         System_Off();
 131:SystemController.c ****     }
 132:SystemController.c **** }
 133:SystemController.c **** 
 134:SystemController.c **** CY_ISR(ISR_CLOCK_handler)
 135:SystemController.c **** {
  31              		.loc 1 135 0
  32              		.cfi_startproc
  33              		@ args = 0, pretend = 0, frame = 56
  34              		@ frame_needed = 0, uses_anonymous_args = 0
  35 0000 10B5     		push	{r4, lr}
  36              		.cfi_def_cfa_offset 8
ARM GAS  C:\Users\nico_\AppData\Local\Temp\ccnFPTLG.s 			page 4


  37              		.cfi_offset 4, -8
  38              		.cfi_offset 14, -4
  39 0002 8EB0     		sub	sp, sp, #56
  40              		.cfi_def_cfa_offset 64
 136:SystemController.c **** 
 137:SystemController.c ****     //Code to fetch temperature here
 138:SystemController.c ****     rtd_ratio = GetRtdRatio();
  41              		.loc 1 138 0
  42 0004 FFF7FEFF 		bl	GetRtdRatio
  43              	.LVL0:
  44 0008 144B     		ldr	r3, .L6
  45 000a 1880     		strh	r0, [r3]	@ movhi
 139:SystemController.c ****     
 140:SystemController.c ****     //Set the new temperature measurement.
 141:SystemController.c ****     SetTemperature(rtd_ratio);
  46              		.loc 1 141 0
  47 000c FFF7FEFF 		bl	SetTemperature
  48              	.LVL1:
 142:SystemController.c ****     
 143:SystemController.c ****     //Get temperature sample and print to uart
 144:SystemController.c ****     char temp[50];
 145:SystemController.c ****             
 146:SystemController.c ****     float temp_string = GetTemperature();
  49              		.loc 1 146 0
  50 0010 FFF7FEFF 		bl	GetTemperature
  51              	.LVL2:
  52 0014 0446     		mov	r4, r0
  53              	.LVL3:
 147:SystemController.c ****     sprintf(temp,"Temperature: %f\n\r",temp_string);
  54              		.loc 1 147 0
  55 0016 FFF7FEFF 		bl	__aeabi_f2d
  56              	.LVL4:
  57 001a 0246     		mov	r2, r0
  58 001c 0B46     		mov	r3, r1
  59 001e 1049     		ldr	r1, .L6+4
  60 0020 01A8     		add	r0, sp, #4
  61 0022 FFF7FEFF 		bl	sprintf
  62              	.LVL5:
 148:SystemController.c ****     UART_1_PutString(temp);
  63              		.loc 1 148 0
  64 0026 01A8     		add	r0, sp, #4
  65 0028 FFF7FEFF 		bl	UART_1_PutString
  66              	.LVL6:
 149:SystemController.c **** 
 150:SystemController.c ****     
 151:SystemController.c ****     regu = Regulation(temp_string);
  67              		.loc 1 151 0
  68 002c 2046     		mov	r0, r4
  69 002e FFF7FEFF 		bl	Regulation
  70              	.LVL7:
  71 0032 0446     		mov	r4, r0
  72              	.LVL8:
  73 0034 FFF7FEFF 		bl	__aeabi_ui2f
  74              	.LVL9:
  75 0038 0A4B     		ldr	r3, .L6+8
  76 003a 1860     		str	r0, [r3]	@ float
 152:SystemController.c ****     
ARM GAS  C:\Users\nico_\AppData\Local\Temp\ccnFPTLG.s 			page 5


 153:SystemController.c ****     
 154:SystemController.c ****     if(last_regu != regu)
  77              		.loc 1 154 0
  78 003c 0A4B     		ldr	r3, .L6+12
  79 003e 1968     		ldr	r1, [r3]	@ float
  80 0040 FFF7FEFF 		bl	__aeabi_fcmpeq
  81              	.LVL10:
  82 0044 10B9     		cbnz	r0, .L2
 155:SystemController.c ****     {
 156:SystemController.c ****         
 157:SystemController.c ****         FlowDirection(regu);
  83              		.loc 1 157 0
  84 0046 2046     		mov	r0, r4
  85 0048 FFF7FEFF 		bl	FlowDirection
  86              	.LVL11:
  87              	.L2:
 158:SystemController.c ****     }
 159:SystemController.c **** 
 160:SystemController.c ****     last_regu = regu;
  88              		.loc 1 160 0
  89 004c 054B     		ldr	r3, .L6+8
  90 004e 1A68     		ldr	r2, [r3]	@ float
  91 0050 054B     		ldr	r3, .L6+12
  92 0052 1A60     		str	r2, [r3]	@ float
 161:SystemController.c ****     
 162:SystemController.c ****      /*Clears counter     interrupt*/
 163:SystemController.c ****     Temp_sample_counter_ReadStatusRegister();
  93              		.loc 1 163 0
  94 0054 FFF7FEFF 		bl	Temp_sample_counter_ReadStatusRegister
  95              	.LVL12:
 164:SystemController.c **** }
  96              		.loc 1 164 0
  97 0058 0EB0     		add	sp, sp, #56
  98              		.cfi_def_cfa_offset 8
  99              		@ sp needed
 100 005a 10BD     		pop	{r4, pc}
 101              	.L7:
 102              		.align	2
 103              	.L6:
 104 005c 00000000 		.word	rtd_ratio
 105 0060 00000000 		.word	.LC0
 106 0064 00000000 		.word	regu
 107 0068 00000000 		.word	last_regu
 108              		.cfi_endproc
 109              	.LFE69:
 110              		.size	ISR_CLOCK_handler, .-ISR_CLOCK_handler
 111              		.section	.text.System_Setup,"ax",%progbits
 112              		.align	2
 113              		.global	System_Setup
 114              		.thumb
 115              		.thumb_func
 116              		.type	System_Setup, %function
 117              	System_Setup:
 118              	.LFB65:
  48:SystemController.c ****     /* Enable global interrupts. */
 119              		.loc 1 48 0
 120              		.cfi_startproc
ARM GAS  C:\Users\nico_\AppData\Local\Temp\ccnFPTLG.s 			page 6


 121              		@ args = 0, pretend = 0, frame = 0
 122              		@ frame_needed = 0, uses_anonymous_args = 0
 123 0000 08B5     		push	{r3, lr}
 124              		.cfi_def_cfa_offset 8
 125              		.cfi_offset 3, -8
 126              		.cfi_offset 14, -4
  50:SystemController.c ****     //System is off, set state to 0.
 127              		.loc 1 50 0
 128              		.syntax unified
 129              	@ 50 "SystemController.c" 1
 130 0002 62B6     		CPSIE   i
 131              	@ 0 "" 2
  52:SystemController.c ****     last_regu = 0;
 132              		.loc 1 52 0
 133              		.thumb
 134              		.syntax unified
 135 0004 0022     		movs	r2, #0
 136 0006 0A4B     		ldr	r3, .L10
 137 0008 1A70     		strb	r2, [r3]
  53:SystemController.c ****        
 138              		.loc 1 53 0
 139 000a 0022     		movs	r2, #0
 140 000c 094B     		ldr	r3, .L10+4
 141 000e 1A60     		str	r2, [r3]	@ float
  56:SystemController.c ****     
 142              		.loc 1 56 0
 143 0010 FFF7FEFF 		bl	UART_1_Start
 144              	.LVL13:
  59:SystemController.c ****     
 145              		.loc 1 59 0
 146 0014 FFF7FEFF 		bl	Switch_Setup
 147              	.LVL14:
  62:SystemController.c ****      
 148              		.loc 1 62 0
 149 0018 FFF7FEFF 		bl	Pump_Setup
 150              	.LVL15:
  65:SystemController.c ****     
 151              		.loc 1 65 0
 152 001c FFF7FEFF 		bl	Amplifier_Setup
 153              	.LVL16:
  68:SystemController.c ****     
 154              		.loc 1 68 0
 155 0020 054B     		ldr	r3, .L10+8
 156 0022 1888     		ldrh	r0, [r3]
 157 0024 FFF7FEFF 		bl	Temperature_Setup
 158              	.LVL17:
  70:SystemController.c ****             
 159              		.loc 1 70 0
 160 0028 FFF7FEFF 		bl	Regulation_setup
 161              	.LVL18:
 162 002c 08BD     		pop	{r3, pc}
 163              	.L11:
 164 002e 00BF     		.align	2
 165              	.L10:
 166 0030 00000000 		.word	Switch_State
 167 0034 00000000 		.word	last_regu
 168 0038 00000000 		.word	.LANCHOR0
ARM GAS  C:\Users\nico_\AppData\Local\Temp\ccnFPTLG.s 			page 7


 169              		.cfi_endproc
 170              	.LFE65:
 171              		.size	System_Setup, .-System_Setup
 172              		.section	.text.main,"ax",%progbits
 173              		.align	2
 174              		.global	main
 175              		.thumb
 176              		.thumb_func
 177              		.type	main, %function
 178              	main:
 179              	.LFB64:
  31:SystemController.c **** 
 180              		.loc 1 31 0
 181              		.cfi_startproc
 182              		@ Volatile: function does not return.
 183              		@ args = 0, pretend = 0, frame = 0
 184              		@ frame_needed = 0, uses_anonymous_args = 0
 185 0000 08B5     		push	{r3, lr}
 186              		.cfi_def_cfa_offset 8
 187              		.cfi_offset 3, -8
 188              		.cfi_offset 14, -4
  35:SystemController.c **** 
 189              		.loc 1 35 0
 190 0002 FFF7FEFF 		bl	System_Setup
 191              	.LVL19:
 192              	.L13:
 193 0006 FEE7     		b	.L13
 194              		.cfi_endproc
 195              	.LFE64:
 196              		.size	main, .-main
 197              		.section	.text.System_On,"ax",%progbits
 198              		.align	2
 199              		.global	System_On
 200              		.thumb
 201              		.thumb_func
 202              		.type	System_On, %function
 203              	System_On:
 204              	.LFB66:
  78:SystemController.c ****     //Start up the amplifier to get new temperature conversion
 205              		.loc 1 78 0
 206              		.cfi_startproc
 207              		@ args = 0, pretend = 0, frame = 0
 208              		@ frame_needed = 0, uses_anonymous_args = 0
 209 0000 08B5     		push	{r3, lr}
 210              		.cfi_def_cfa_offset 8
 211              		.cfi_offset 3, -8
 212              		.cfi_offset 14, -4
  80:SystemController.c ****     
 213              		.loc 1 80 0
 214 0002 FFF7FEFF 		bl	Amplifier_Startup
 215              	.LVL20:
  83:SystemController.c ****     
 216              		.loc 1 83 0
 217 0006 40F6C410 		movw	r0, #2500
 218 000a FFF7FEFF 		bl	Pump_Startup
 219              	.LVL21:
  86:SystemController.c ****     Clock_TempSampling_Start();
ARM GAS  C:\Users\nico_\AppData\Local\Temp\ccnFPTLG.s 			page 8


 220              		.loc 1 86 0
 221 000e FFF7FEFF 		bl	Temp_sample_counter_Start
 222              	.LVL22:
  87:SystemController.c ****     isr_clock_StartEx(ISR_CLOCK_handler); 
 223              		.loc 1 87 0
 224 0012 FFF7FEFF 		bl	Clock_TempSampling_Start
 225              	.LVL23:
  88:SystemController.c ****     
 226              		.loc 1 88 0
 227 0016 0348     		ldr	r0, .L17
 228 0018 FFF7FEFF 		bl	isr_clock_StartEx
 229              	.LVL24:
  91:SystemController.c **** }
 230              		.loc 1 91 0
 231 001c FFF7FEFF 		bl	Turn_ON
 232              	.LVL25:
 233 0020 08BD     		pop	{r3, pc}
 234              	.L18:
 235 0022 00BF     		.align	2
 236              	.L17:
 237 0024 00000000 		.word	ISR_CLOCK_handler
 238              		.cfi_endproc
 239              	.LFE66:
 240              		.size	System_On, .-System_On
 241              		.section	.text.System_Off,"ax",%progbits
 242              		.align	2
 243              		.global	System_Off
 244              		.thumb
 245              		.thumb_func
 246              		.type	System_Off, %function
 247              	System_Off:
 248              	.LFB67:
  96:SystemController.c ****     //Stop the clock interrupt routine
 249              		.loc 1 96 0
 250              		.cfi_startproc
 251              		@ args = 0, pretend = 0, frame = 0
 252              		@ frame_needed = 0, uses_anonymous_args = 0
 253 0000 08B5     		push	{r3, lr}
 254              		.cfi_def_cfa_offset 8
 255              		.cfi_offset 3, -8
 256              		.cfi_offset 14, -4
  98:SystemController.c ****     
 257              		.loc 1 98 0
 258 0002 FFF7FEFF 		bl	isr_clock_Disable
 259              	.LVL26:
 101:SystemController.c ****     Clock_TempSampling_Stop();
 260              		.loc 1 101 0
 261 0006 FFF7FEFF 		bl	Temp_sample_counter_Stop
 262              	.LVL27:
 102:SystemController.c ****     
 263              		.loc 1 102 0
 264 000a FFF7FEFF 		bl	Clock_TempSampling_Stop
 265              	.LVL28:
 105:SystemController.c ****     
 266              		.loc 1 105 0
 267 000e FFF7FEFF 		bl	Pump_Shutdown
 268              	.LVL29:
ARM GAS  C:\Users\nico_\AppData\Local\Temp\ccnFPTLG.s 			page 9


 108:SystemController.c ****     
 269              		.loc 1 108 0
 270 0012 FFF7FEFF 		bl	Amplifier_Shutdown
 271              	.LVL30:
 111:SystemController.c ****     
 272              		.loc 1 111 0
 273 0016 FFF7FEFF 		bl	Turn_OFF
 274              	.LVL31:
 275 001a 08BD     		pop	{r3, pc}
 276              		.cfi_endproc
 277              	.LFE67:
 278              		.size	System_Off, .-System_Off
 279              		.section	.text.System_newState,"ax",%progbits
 280              		.align	2
 281              		.global	System_newState
 282              		.thumb
 283              		.thumb_func
 284              		.type	System_newState, %function
 285              	System_newState:
 286              	.LFB68:
 119:SystemController.c ****     Switch_State = switchstate;
 287              		.loc 1 119 0
 288              		.cfi_startproc
 289              		@ args = 0, pretend = 0, frame = 0
 290              		@ frame_needed = 0, uses_anonymous_args = 0
 291              	.LVL32:
 292 0000 08B5     		push	{r3, lr}
 293              		.cfi_def_cfa_offset 8
 294              		.cfi_offset 3, -8
 295              		.cfi_offset 14, -4
 120:SystemController.c ****     
 296              		.loc 1 120 0
 297 0002 044B     		ldr	r3, .L25
 298 0004 1870     		strb	r0, [r3]
 122:SystemController.c ****     {
 299              		.loc 1 122 0
 300 0006 10B1     		cbz	r0, .L22
 125:SystemController.c ****         
 301              		.loc 1 125 0
 302 0008 FFF7FEFF 		bl	System_On
 303              	.LVL33:
 304 000c 08BD     		pop	{r3, pc}
 305              	.LVL34:
 306              	.L22:
 130:SystemController.c ****     }
 307              		.loc 1 130 0
 308 000e FFF7FEFF 		bl	System_Off
 309              	.LVL35:
 310 0012 08BD     		pop	{r3, pc}
 311              	.L26:
 312              		.align	2
 313              	.L25:
 314 0014 00000000 		.word	Switch_State
 315              		.cfi_endproc
 316              	.LFE68:
 317              		.size	System_newState, .-System_newState
 318              		.comm	regu,4,4
ARM GAS  C:\Users\nico_\AppData\Local\Temp\ccnFPTLG.s 			page 10


 319              		.comm	last_regu,4,4
 320              		.global	ref_res
 321              		.comm	rtd_ratio,2,2
 322              		.comm	Switch_State,1,1
 323              		.data
 324              		.align	1
 325              		.set	.LANCHOR0,. + 0
 326              		.type	ref_res, %object
 327              		.size	ref_res, 2
 328              	ref_res:
 329 0000 CC10     		.short	4300
 330              		.section	.rodata.str1.4,"aMS",%progbits,1
 331              		.align	2
 332              	.LC0:
 333 0000 54656D70 		.ascii	"Temperature: %f\012\015\000"
 333      65726174 
 333      7572653A 
 333      2025660A 
 333      0D00
 334              		.text
 335              	.Letext0:
 336              		.file 2 "c:\\program files (x86)\\cypress\\psoc creator\\4.4\\psoc creator\\import\\gnu\\arm\\5.4.
 337              		.file 3 "c:\\program files (x86)\\cypress\\psoc creator\\4.4\\psoc creator\\import\\gnu\\arm\\5.4.
 338              		.file 4 "Generated_Source\\PSoC5/cytypes.h"
 339              		.file 5 "Generated_Source\\PSoC5/core_cm3.h"
 340              		.file 6 "Amplifier.h"
 341              		.file 7 "Temperature.h"
 342              		.file 8 "c:\\program files (x86)\\cypress\\psoc creator\\4.4\\psoc creator\\import\\gnu\\arm\\5.4.
 343              		.file 9 "Generated_Source\\PSoC5/UART_1.h"
 344              		.file 10 "Regulation.h"
 345              		.file 11 "PumpCtrl.h"
 346              		.file 12 "Generated_Source\\PSoC5/Temp_sample_counter.h"
 347              		.file 13 "switch.h"
 348              		.file 14 "Generated_Source\\PSoC5/Clock_TempSampling.h"
 349              		.file 15 "Generated_Source\\PSoC5/isr_clock.h"
 350              		.file 16 "LED.h"