ARM GAS  C:\Users\nico_\AppData\Local\Temp\ccTbimlo.s 			page 1


   1              		.syntax unified
   2              		.cpu cortex-m3
   3              		.fpu softvfp
   4              		.eabi_attribute 20, 1
   5              		.eabi_attribute 21, 1
   6              		.eabi_attribute 23, 3
   7              		.eabi_attribute 24, 1
   8              		.eabi_attribute 25, 1
   9              		.eabi_attribute 26, 1
  10              		.eabi_attribute 30, 1
  11              		.eabi_attribute 34, 1
  12              		.eabi_attribute 18, 4
  13              		.thumb
  14              		.syntax unified
  15              		.file	"SystemControllerUnitTest.c"
  16              		.text
  17              	.Ltext0:
  18              		.cfi_sections	.debug_frame
  19              		.section	.text.SystemController_Switchnewstate1_methodcalled_SystemOnIscalled,"ax",%progbits
  20              		.align	2
  21              		.global	SystemController_Switchnewstate1_methodcalled_SystemOnIscalled
  22              		.thumb
  23              		.thumb_func
  24              		.type	SystemController_Switchnewstate1_methodcalled_SystemOnIscalled, %function
  25              	SystemController_Switchnewstate1_methodcalled_SystemOnIscalled:
  26              	.LFB64:
  27              		.file 1 "SystemControllerUnitTest.c"
   1:SystemControllerUnitTest.c **** /* ========================================
   2:SystemControllerUnitTest.c ****  *
   3:SystemControllerUnitTest.c ****  * Copyright YOUR COMPANY, THE YEAR
   4:SystemControllerUnitTest.c ****  * All Rights Reserved
   5:SystemControllerUnitTest.c ****  * UNPUBLISHED, LICENSED SOFTWARE.
   6:SystemControllerUnitTest.c ****  *
   7:SystemControllerUnitTest.c ****  * CONFIDENTIAL AND PROPRIETARY INFORMATION
   8:SystemControllerUnitTest.c ****  * WHICH IS THE PROPERTY OF your company.
   9:SystemControllerUnitTest.c ****  *
  10:SystemControllerUnitTest.c ****  * ========================================
  11:SystemControllerUnitTest.c **** */
  12:SystemControllerUnitTest.c **** #include "SystemControllerUnitTest.h"
  13:SystemControllerUnitTest.c **** 
  14:SystemControllerUnitTest.c **** void SystemController_Switchnewstate1_methodcalled_SystemOnIscalled()
  15:SystemControllerUnitTest.c **** {
  28              		.loc 1 15 0
  29              		.cfi_startproc
  30              		@ args = 0, pretend = 0, frame = 0
  31              		@ frame_needed = 0, uses_anonymous_args = 0
  32 0000 08B5     		push	{r3, lr}
  33              		.cfi_def_cfa_offset 8
  34              		.cfi_offset 3, -8
  35              		.cfi_offset 14, -4
  16:SystemControllerUnitTest.c ****     UART_1_Start();
  36              		.loc 1 16 0
  37 0002 FFF7FEFF 		bl	UART_1_Start
  38              	.LVL0:
  17:SystemControllerUnitTest.c ****     System_newState(1);
  39              		.loc 1 17 0
  40 0006 0120     		movs	r0, #1
ARM GAS  C:\Users\nico_\AppData\Local\Temp\ccTbimlo.s 			page 2


  41 0008 FFF7FEFF 		bl	System_newState
  42              	.LVL1:
  43 000c 08BD     		pop	{r3, pc}
  44              		.cfi_endproc
  45              	.LFE64:
  46              		.size	SystemController_Switchnewstate1_methodcalled_SystemOnIscalled, .-SystemController_Switchnew
  47 000e 00BF     		.section	.text.SystemController_Switchnewstate0_methodcalled_SystemOffIscalled,"ax",%progbits
  48              		.align	2
  49              		.global	SystemController_Switchnewstate0_methodcalled_SystemOffIscalled
  50              		.thumb
  51              		.thumb_func
  52              		.type	SystemController_Switchnewstate0_methodcalled_SystemOffIscalled, %function
  53              	SystemController_Switchnewstate0_methodcalled_SystemOffIscalled:
  54              	.LFB65:
  18:SystemControllerUnitTest.c **** }
  19:SystemControllerUnitTest.c **** 
  20:SystemControllerUnitTest.c **** void SystemController_Switchnewstate0_methodcalled_SystemOffIscalled()
  21:SystemControllerUnitTest.c **** {
  55              		.loc 1 21 0
  56              		.cfi_startproc
  57              		@ args = 0, pretend = 0, frame = 0
  58              		@ frame_needed = 0, uses_anonymous_args = 0
  59 0000 08B5     		push	{r3, lr}
  60              		.cfi_def_cfa_offset 8
  61              		.cfi_offset 3, -8
  62              		.cfi_offset 14, -4
  22:SystemControllerUnitTest.c ****     UART_1_Start();
  63              		.loc 1 22 0
  64 0002 FFF7FEFF 		bl	UART_1_Start
  65              	.LVL2:
  23:SystemControllerUnitTest.c ****     System_newState(0);
  66              		.loc 1 23 0
  67 0006 0020     		movs	r0, #0
  68 0008 FFF7FEFF 		bl	System_newState
  69              	.LVL3:
  70 000c 08BD     		pop	{r3, pc}
  71              		.cfi_endproc
  72              	.LFE65:
  73              		.size	SystemController_Switchnewstate0_methodcalled_SystemOffIscalled, .-SystemController_Switchne
  74 000e 00BF     		.section	.text.SystemController_ClockHandle_methodcalled_SystemOffIscalled,"ax",%progbits
  75              		.align	2
  76              		.global	SystemController_ClockHandle_methodcalled_SystemOffIscalled
  77              		.thumb
  78              		.thumb_func
  79              		.type	SystemController_ClockHandle_methodcalled_SystemOffIscalled, %function
  80              	SystemController_ClockHandle_methodcalled_SystemOffIscalled:
  81              	.LFB66:
  24:SystemControllerUnitTest.c **** }
  25:SystemControllerUnitTest.c **** 
  26:SystemControllerUnitTest.c **** void SystemController_ClockHandle_methodcalled_SystemOffIscalled()
  27:SystemControllerUnitTest.c **** {
  82              		.loc 1 27 0
  83              		.cfi_startproc
  84              		@ args = 0, pretend = 0, frame = 0
  85              		@ frame_needed = 0, uses_anonymous_args = 0
  86 0000 08B5     		push	{r3, lr}
  87              		.cfi_def_cfa_offset 8
ARM GAS  C:\Users\nico_\AppData\Local\Temp\ccTbimlo.s 			page 3


  88              		.cfi_offset 3, -8
  89              		.cfi_offset 14, -4
  28:SystemControllerUnitTest.c ****    System_newState(1);
  90              		.loc 1 28 0
  91 0002 0120     		movs	r0, #1
  92 0004 FFF7FEFF 		bl	System_newState
  93              	.LVL4:
  94 0008 08BD     		pop	{r3, pc}
  95              		.cfi_endproc
  96              	.LFE66:
  97              		.size	SystemController_ClockHandle_methodcalled_SystemOffIscalled, .-SystemController_ClockHandle_
  98 000a 00BF     		.text
  99              	.Letext0:
 100              		.file 2 "c:\\program files (x86)\\cypress\\psoc creator\\4.4\\psoc creator\\import\\gnu\\arm\\5.4.
 101              		.file 3 "c:\\program files (x86)\\cypress\\psoc creator\\4.4\\psoc creator\\import\\gnu\\arm\\5.4.
 102              		.file 4 "Generated_Source\\PSoC5/UART_1.h"
 103              		.file 5 "SystemController_interrupt.h"
 104              		.file 6 "Generated_Source\\PSoC5/core_cm3.h"