ARM GAS  C:\Users\nico_\AppData\Local\Temp\ccbBy9VR.s 			page 1


   1              		.syntax unified
   2              		.cpu cortex-m3
   3              		.fpu softvfp
   4              		.eabi_attribute 20, 1
   5              		.eabi_attribute 21, 1
   6              		.eabi_attribute 23, 3
   7              		.eabi_attribute 24, 1
   8              		.eabi_attribute 25, 1
   9              		.eabi_attribute 26, 1
  10              		.eabi_attribute 30, 1
  11              		.eabi_attribute 34, 1
  12              		.eabi_attribute 18, 4
  13              		.thumb
  14              		.syntax unified
  15              		.file	"TempSensorUnit.c"
  16              		.text
  17              	.Ltext0:
  18              		.cfi_sections	.debug_frame
  19              		.section	.text.Concacenate_RTDdata,"ax",%progbits
  20              		.align	2
  21              		.global	Concacenate_RTDdata
  22              		.thumb
  23              		.thumb_func
  24              		.type	Concacenate_RTDdata, %function
  25              	Concacenate_RTDdata:
  26              	.LFB5:
  27              		.file 1 "TempSensorUnit.c"
   1:TempSensorUnit.c **** /* ========================================
   2:TempSensorUnit.c ****  *
   3:TempSensorUnit.c ****  * Copyright YOUR COMPANY, THE YEAR
   4:TempSensorUnit.c ****  * All Rights Reserved
   5:TempSensorUnit.c ****  * UNPUBLISHED, LICENSED SOFTWARE.
   6:TempSensorUnit.c ****  *
   7:TempSensorUnit.c ****  * CONFIDENTIAL AND PROPRIETARY INFORMATION
   8:TempSensorUnit.c ****  * WHICH IS THE PROPERTY OF your company.
   9:TempSensorUnit.c ****  *
  10:TempSensorUnit.c ****  * ========================================
  11:TempSensorUnit.c **** */
  12:TempSensorUnit.c **** #include "TempSensorUnit.h"
  13:TempSensorUnit.c **** #include "AmplifierRegisters.h"
  14:TempSensorUnit.c **** 
  15:TempSensorUnit.c **** /*Internal function declarations*/
  16:TempSensorUnit.c **** void SPI_Setup();
  17:TempSensorUnit.c **** void Set_WireSetup();
  18:TempSensorUnit.c **** void Set_FilterSetup();
  19:TempSensorUnit.c **** void WriteByteToAdress(char adress);
  20:TempSensorUnit.c **** char ReadByteFromAdress();
  21:TempSensorUnit.c **** 
  22:TempSensorUnit.c **** /*Internal variables declartion*/
  23:TempSensorUnit.c **** uint16_t rtd_ratio;
  24:TempSensorUnit.c **** 
  25:TempSensorUnit.c **** 
  26:TempSensorUnit.c **** /*Does initial setup of the amplifier*/
  27:TempSensorUnit.c **** void Amplifier_Setup()
  28:TempSensorUnit.c **** {
  29:TempSensorUnit.c ****     SPI_Setup();
  30:TempSensorUnit.c ****     Set_WireSetup();
ARM GAS  C:\Users\nico_\AppData\Local\Temp\ccbBy9VR.s 			page 2


  31:TempSensorUnit.c ****     Set_FilterSetup();
  32:TempSensorUnit.c **** }
  33:TempSensorUnit.c **** 
  34:TempSensorUnit.c **** 
  35:TempSensorUnit.c **** /*Retrieve RTD ration by reading the RTD msb byte and 
  36:TempSensorUnit.c **** the RTD lsb byte from the amplifier registers*/
  37:TempSensorUnit.c **** uint16_t GetRtdRatio()
  38:TempSensorUnit.c **** {
  39:TempSensorUnit.c ****     uint16_t rtd_ratio;
  40:TempSensorUnit.c ****     //Read MSB byte from amplifier
  41:TempSensorUnit.c ****     char RTD_msb = ReadByteFromAdress(READ_RTD_MSB_Reg_Adress);
  42:TempSensorUnit.c ****     
  43:TempSensorUnit.c ****     //Read LSB byte from amplifier
  44:TempSensorUnit.c ****     char RTD_lsb = ReadByteFromAdress(READ_RTD_LSB_Reg_Adress);
  45:TempSensorUnit.c ****     
  46:TempSensorUnit.c ****     rtd_ratio = Concacenate_RTDdata(RTD_msb, RTD_lsb);
  47:TempSensorUnit.c ****     
  48:TempSensorUnit.c ****     return rtd_ratio;
  49:TempSensorUnit.c **** }
  50:TempSensorUnit.c **** 
  51:TempSensorUnit.c **** /*Make a controller shuwdown off the amplifier*/
  52:TempSensorUnit.c **** void Amplifier_Shutdown()
  53:TempSensorUnit.c **** {
  54:TempSensorUnit.c ****     //Set conversion mode "normally off", VBIAS off. See datasheet max31865
  55:TempSensorUnit.c ****     
  56:TempSensorUnit.c ****     Amplifier_Config |= 0 << 7; //VBiAS = "OFF";
  57:TempSensorUnit.c ****     Amplifier_Config |= 0 << 6; //Conversion mode = "Normally OFF";
  58:TempSensorUnit.c ****     
  59:TempSensorUnit.c ****     //Setup amplifier for WRITE mode.
  60:TempSensorUnit.c ****     WriteByteToAdress(WRITE_Config_Reg_Adress);
  61:TempSensorUnit.c ****     //Write new configuration to the amplifier.
  62:TempSensorUnit.c ****     WriteByteToAdress(Amplifier_Config);
  63:TempSensorUnit.c ****     
  64:TempSensorUnit.c **** }
  65:TempSensorUnit.c **** 
  66:TempSensorUnit.c **** 
  67:TempSensorUnit.c **** /*Controlled startup after being shutdown*/
  68:TempSensorUnit.c **** void Amplifier_Startup()
  69:TempSensorUnit.c **** {
  70:TempSensorUnit.c ****     //Set conversion mode "Auto", VBIAS on. See datasheet max31865
  71:TempSensorUnit.c ****     
  72:TempSensorUnit.c ****     Amplifier_Config |= 1 << 7; //VBiAS = "OFF";
  73:TempSensorUnit.c ****     Amplifier_Config |= 1 << 6; //Conversion mode = "Normally OFF";
  74:TempSensorUnit.c ****     
  75:TempSensorUnit.c ****     //Setup amplifier for WRITE mode.
  76:TempSensorUnit.c ****     WriteByteToAdress(WRITE_Config_Reg_Adress);
  77:TempSensorUnit.c ****     //Write new configuration to the amplifier.
  78:TempSensorUnit.c ****     WriteByteToAdress(Amplifier_Config);
  79:TempSensorUnit.c ****     
  80:TempSensorUnit.c **** }
  81:TempSensorUnit.c **** 
  82:TempSensorUnit.c **** 
  83:TempSensorUnit.c **** uint16_t Concacenate_RTDdata(uint8_t MSB, uint8_t LSB)
  84:TempSensorUnit.c **** {
  28              		.loc 1 84 0
  29              		.cfi_startproc
  30              		@ args = 0, pretend = 0, frame = 0
ARM GAS  C:\Users\nico_\AppData\Local\Temp\ccbBy9VR.s 			page 3


  31              		@ frame_needed = 0, uses_anonymous_args = 0
  32              		@ link register save eliminated.
  33              	.LVL0:
  85:TempSensorUnit.c ****     //Concatenate MSB and LSB to form the 15Bit RTD ration according to datasheet MAX31865 page 15 
  86:TempSensorUnit.c ****     rtd_ratio = ((uint16_t)MSB << 7) | LSB>>1;
  34              		.loc 1 86 0
  35 0000 4908     		lsrs	r1, r1, #1
  36              	.LVL1:
  37 0002 41EAC010 		orr	r0, r1, r0, lsl #7
  38              	.LVL2:
  39 0006 014B     		ldr	r3, .L2
  40 0008 1880     		strh	r0, [r3]	@ movhi
  87:TempSensorUnit.c ****     return rtd_ratio;
  88:TempSensorUnit.c **** }
  41              		.loc 1 88 0
  42 000a 7047     		bx	lr
  43              	.L3:
  44              		.align	2
  45              	.L2:
  46 000c 00000000 		.word	rtd_ratio
  47              		.cfi_endproc
  48              	.LFE5:
  49              		.size	Concacenate_RTDdata, .-Concacenate_RTDdata
  50              		.section	.text.SPI_Setup,"ax",%progbits
  51              		.align	2
  52              		.global	SPI_Setup
  53              		.thumb
  54              		.thumb_func
  55              		.type	SPI_Setup, %function
  56              	SPI_Setup:
  57              	.LFB6:
  89:TempSensorUnit.c **** 
  90:TempSensorUnit.c **** 
  91:TempSensorUnit.c **** /*Setup SPI communication*/
  92:TempSensorUnit.c **** void SPI_Setup()
  93:TempSensorUnit.c **** {
  58              		.loc 1 93 0
  59              		.cfi_startproc
  60              		@ args = 0, pretend = 0, frame = 0
  61              		@ frame_needed = 0, uses_anonymous_args = 0
  62 0000 08B5     		push	{r3, lr}
  63              		.cfi_def_cfa_offset 8
  64              		.cfi_offset 3, -8
  65              		.cfi_offset 14, -4
  94:TempSensorUnit.c ****     //Start up SPI. All setups are done in the TopDesign file.
  95:TempSensorUnit.c ****     SPIM_1_Start();
  66              		.loc 1 95 0
  67 0002 FFF7FEFF 		bl	SPIM_1_Start
  68              	.LVL3:
  69 0006 08BD     		pop	{r3, pc}
  70              		.cfi_endproc
  71              	.LFE6:
  72              		.size	SPI_Setup, .-SPI_Setup
  73              		.section	.text.ReadByteFromAdress,"ax",%progbits
  74              		.align	2
  75              		.global	ReadByteFromAdress
  76              		.thumb
ARM GAS  C:\Users\nico_\AppData\Local\Temp\ccbBy9VR.s 			page 4


  77              		.thumb_func
  78              		.type	ReadByteFromAdress, %function
  79              	ReadByteFromAdress:
  80              	.LFB9:
  96:TempSensorUnit.c **** }
  97:TempSensorUnit.c **** 
  98:TempSensorUnit.c **** /*Setting up the amplifier for the current wire configuration
  99:TempSensorUnit.c **** This being a 2-wire config. Possible to do 3 og 4 wire as well*/
 100:TempSensorUnit.c **** void Set_WireSetup()
 101:TempSensorUnit.c **** {
 102:TempSensorUnit.c ****     //Code to communicate the 2 wire config to the amplifier
 103:TempSensorUnit.c ****     //Set Bit D4 = 0. Look at datasheet for Max865
 104:TempSensorUnit.c ****     Amplifier_Config |= 0 << 4;
 105:TempSensorUnit.c ****     //Setup amplifier for WRITE mode.
 106:TempSensorUnit.c ****     WriteByteToAdress(WRITE_Config_Reg_Adress);
 107:TempSensorUnit.c ****     //Write new configuration.
 108:TempSensorUnit.c ****     WriteByteToAdress(Amplifier_Config);
 109:TempSensorUnit.c **** }
 110:TempSensorUnit.c **** 
 111:TempSensorUnit.c **** 
 112:TempSensorUnit.c **** 
 113:TempSensorUnit.c **** /*Setting up the filter setup, either 50Hz or 60Hz
 114:TempSensorUnit.c **** Dependent on country (Denmark), this will be 50Hz*/
 115:TempSensorUnit.c **** void Set_FilterSetup()
 116:TempSensorUnit.c **** {  
 117:TempSensorUnit.c ****     //Code to communicate the 50Hz filter configuration to the amplifier on top of base setup.
 118:TempSensorUnit.c ****     //Set Bit D0 = 1. Look at datasheet for Max865
 119:TempSensorUnit.c ****     Amplifier_Config |= 1 << 0;
 120:TempSensorUnit.c ****     WriteByteToAdress(Amplifier_Config);
 121:TempSensorUnit.c **** }
 122:TempSensorUnit.c **** 
 123:TempSensorUnit.c **** 
 124:TempSensorUnit.c **** 
 125:TempSensorUnit.c **** char ReadByteFromAdress()
 126:TempSensorUnit.c **** {
  81              		.loc 1 126 0
  82              		.cfi_startproc
  83              		@ args = 0, pretend = 0, frame = 0
  84              		@ frame_needed = 0, uses_anonymous_args = 0
  85 0000 08B5     		push	{r3, lr}
  86              		.cfi_def_cfa_offset 8
  87              		.cfi_offset 3, -8
  88              		.cfi_offset 14, -4
 127:TempSensorUnit.c ****     char data = SPIM_1_ReadRxData();
  89              		.loc 1 127 0
  90 0002 FFF7FEFF 		bl	SPIM_1_ReadRxData
  91              	.LVL4:
 128:TempSensorUnit.c ****     return data;
 129:TempSensorUnit.c **** }
  92              		.loc 1 129 0
  93 0006 08BD     		pop	{r3, pc}
  94              		.cfi_endproc
  95              	.LFE9:
  96              		.size	ReadByteFromAdress, .-ReadByteFromAdress
  97              		.section	.text.GetRtdRatio,"ax",%progbits
  98              		.align	2
  99              		.global	GetRtdRatio
ARM GAS  C:\Users\nico_\AppData\Local\Temp\ccbBy9VR.s 			page 5


 100              		.thumb
 101              		.thumb_func
 102              		.type	GetRtdRatio, %function
 103              	GetRtdRatio:
 104              	.LFB2:
  38:TempSensorUnit.c ****     uint16_t rtd_ratio;
 105              		.loc 1 38 0
 106              		.cfi_startproc
 107              		@ args = 0, pretend = 0, frame = 0
 108              		@ frame_needed = 0, uses_anonymous_args = 0
 109 0000 38B5     		push	{r3, r4, r5, lr}
 110              		.cfi_def_cfa_offset 16
 111              		.cfi_offset 3, -16
 112              		.cfi_offset 4, -12
 113              		.cfi_offset 5, -8
 114              		.cfi_offset 14, -4
  41:TempSensorUnit.c ****     
 115              		.loc 1 41 0
 116 0002 064C     		ldr	r4, .L10
 117 0004 2078     		ldrb	r0, [r4]	@ zero_extendqisi2
 118 0006 FFF7FEFF 		bl	ReadByteFromAdress
 119              	.LVL5:
 120 000a 0546     		mov	r5, r0
 121              	.LVL6:
  44:TempSensorUnit.c ****     
 122              		.loc 1 44 0
 123 000c 6078     		ldrb	r0, [r4, #1]	@ zero_extendqisi2
 124 000e FFF7FEFF 		bl	ReadByteFromAdress
 125              	.LVL7:
  46:TempSensorUnit.c ****     
 126              		.loc 1 46 0
 127 0012 0146     		mov	r1, r0
 128 0014 2846     		mov	r0, r5
 129              	.LVL8:
 130 0016 FFF7FEFF 		bl	Concacenate_RTDdata
 131              	.LVL9:
  49:TempSensorUnit.c **** 
 132              		.loc 1 49 0
 133 001a 38BD     		pop	{r3, r4, r5, pc}
 134              	.LVL10:
 135              	.L11:
 136              		.align	2
 137              	.L10:
 138 001c 00000000 		.word	.LANCHOR0
 139              		.cfi_endproc
 140              	.LFE2:
 141              		.size	GetRtdRatio, .-GetRtdRatio
 142              		.section	.text.WriteByteToAdress,"ax",%progbits
 143              		.align	2
 144              		.global	WriteByteToAdress
 145              		.thumb
 146              		.thumb_func
 147              		.type	WriteByteToAdress, %function
 148              	WriteByteToAdress:
 149              	.LFB10:
 130:TempSensorUnit.c **** 
 131:TempSensorUnit.c **** void WriteByteToAdress(char adress)
ARM GAS  C:\Users\nico_\AppData\Local\Temp\ccbBy9VR.s 			page 6


 132:TempSensorUnit.c **** {
 150              		.loc 1 132 0
 151              		.cfi_startproc
 152              		@ args = 0, pretend = 0, frame = 0
 153              		@ frame_needed = 0, uses_anonymous_args = 0
 154              	.LVL11:
 155 0000 08B5     		push	{r3, lr}
 156              		.cfi_def_cfa_offset 8
 157              		.cfi_offset 3, -8
 158              		.cfi_offset 14, -4
 133:TempSensorUnit.c ****     //SPI code for writing a byte
 134:TempSensorUnit.c ****     SPIM_1_WriteTxData(adress);
 159              		.loc 1 134 0
 160 0002 FFF7FEFF 		bl	SPIM_1_WriteTxData
 161              	.LVL12:
 162 0006 08BD     		pop	{r3, pc}
 163              		.cfi_endproc
 164              	.LFE10:
 165              		.size	WriteByteToAdress, .-WriteByteToAdress
 166              		.section	.text.Amplifier_Shutdown,"ax",%progbits
 167              		.align	2
 168              		.global	Amplifier_Shutdown
 169              		.thumb
 170              		.thumb_func
 171              		.type	Amplifier_Shutdown, %function
 172              	Amplifier_Shutdown:
 173              	.LFB3:
  53:TempSensorUnit.c ****     //Set conversion mode "normally off", VBIAS off. See datasheet max31865
 174              		.loc 1 53 0
 175              		.cfi_startproc
 176              		@ args = 0, pretend = 0, frame = 0
 177              		@ frame_needed = 0, uses_anonymous_args = 0
 178 0000 10B5     		push	{r4, lr}
 179              		.cfi_def_cfa_offset 8
 180              		.cfi_offset 4, -8
 181              		.cfi_offset 14, -4
  60:TempSensorUnit.c ****     //Write new configuration to the amplifier.
 182              		.loc 1 60 0
 183 0002 044C     		ldr	r4, .L16
 184 0004 A078     		ldrb	r0, [r4, #2]	@ zero_extendqisi2
 185 0006 FFF7FEFF 		bl	WriteByteToAdress
 186              	.LVL13:
  62:TempSensorUnit.c ****     
 187              		.loc 1 62 0
 188 000a E078     		ldrb	r0, [r4, #3]	@ zero_extendqisi2
 189 000c FFF7FEFF 		bl	WriteByteToAdress
 190              	.LVL14:
 191 0010 10BD     		pop	{r4, pc}
 192              	.L17:
 193 0012 00BF     		.align	2
 194              	.L16:
 195 0014 00000000 		.word	.LANCHOR0
 196              		.cfi_endproc
 197              	.LFE3:
 198              		.size	Amplifier_Shutdown, .-Amplifier_Shutdown
 199              		.section	.text.Amplifier_Startup,"ax",%progbits
 200              		.align	2
ARM GAS  C:\Users\nico_\AppData\Local\Temp\ccbBy9VR.s 			page 7


 201              		.global	Amplifier_Startup
 202              		.thumb
 203              		.thumb_func
 204              		.type	Amplifier_Startup, %function
 205              	Amplifier_Startup:
 206              	.LFB4:
  69:TempSensorUnit.c ****     //Set conversion mode "Auto", VBIAS on. See datasheet max31865
 207              		.loc 1 69 0
 208              		.cfi_startproc
 209              		@ args = 0, pretend = 0, frame = 0
 210              		@ frame_needed = 0, uses_anonymous_args = 0
 211 0000 10B5     		push	{r4, lr}
 212              		.cfi_def_cfa_offset 8
 213              		.cfi_offset 4, -8
 214              		.cfi_offset 14, -4
  72:TempSensorUnit.c ****     Amplifier_Config |= 1 << 6; //Conversion mode = "Normally OFF";
 215              		.loc 1 72 0
 216 0002 064C     		ldr	r4, .L20
 217 0004 E378     		ldrb	r3, [r4, #3]	@ zero_extendqisi2
  73:TempSensorUnit.c ****     
 218              		.loc 1 73 0
 219 0006 43F0C003 		orr	r3, r3, #192
 220 000a E370     		strb	r3, [r4, #3]
  76:TempSensorUnit.c ****     //Write new configuration to the amplifier.
 221              		.loc 1 76 0
 222 000c A078     		ldrb	r0, [r4, #2]	@ zero_extendqisi2
 223 000e FFF7FEFF 		bl	WriteByteToAdress
 224              	.LVL15:
  78:TempSensorUnit.c ****     
 225              		.loc 1 78 0
 226 0012 E078     		ldrb	r0, [r4, #3]	@ zero_extendqisi2
 227 0014 FFF7FEFF 		bl	WriteByteToAdress
 228              	.LVL16:
 229 0018 10BD     		pop	{r4, pc}
 230              	.L21:
 231 001a 00BF     		.align	2
 232              	.L20:
 233 001c 00000000 		.word	.LANCHOR0
 234              		.cfi_endproc
 235              	.LFE4:
 236              		.size	Amplifier_Startup, .-Amplifier_Startup
 237              		.section	.text.Set_WireSetup,"ax",%progbits
 238              		.align	2
 239              		.global	Set_WireSetup
 240              		.thumb
 241              		.thumb_func
 242              		.type	Set_WireSetup, %function
 243              	Set_WireSetup:
 244              	.LFB7:
 101:TempSensorUnit.c ****     //Code to communicate the 2 wire config to the amplifier
 245              		.loc 1 101 0
 246              		.cfi_startproc
 247              		@ args = 0, pretend = 0, frame = 0
 248              		@ frame_needed = 0, uses_anonymous_args = 0
 249 0000 10B5     		push	{r4, lr}
 250              		.cfi_def_cfa_offset 8
 251              		.cfi_offset 4, -8
ARM GAS  C:\Users\nico_\AppData\Local\Temp\ccbBy9VR.s 			page 8


 252              		.cfi_offset 14, -4
 106:TempSensorUnit.c ****     //Write new configuration.
 253              		.loc 1 106 0
 254 0002 044C     		ldr	r4, .L24
 255 0004 A078     		ldrb	r0, [r4, #2]	@ zero_extendqisi2
 256 0006 FFF7FEFF 		bl	WriteByteToAdress
 257              	.LVL17:
 108:TempSensorUnit.c **** }
 258              		.loc 1 108 0
 259 000a E078     		ldrb	r0, [r4, #3]	@ zero_extendqisi2
 260 000c FFF7FEFF 		bl	WriteByteToAdress
 261              	.LVL18:
 262 0010 10BD     		pop	{r4, pc}
 263              	.L25:
 264 0012 00BF     		.align	2
 265              	.L24:
 266 0014 00000000 		.word	.LANCHOR0
 267              		.cfi_endproc
 268              	.LFE7:
 269              		.size	Set_WireSetup, .-Set_WireSetup
 270              		.section	.text.Set_FilterSetup,"ax",%progbits
 271              		.align	2
 272              		.global	Set_FilterSetup
 273              		.thumb
 274              		.thumb_func
 275              		.type	Set_FilterSetup, %function
 276              	Set_FilterSetup:
 277              	.LFB8:
 116:TempSensorUnit.c ****     //Code to communicate the 50Hz filter configuration to the amplifier on top of base setup.
 278              		.loc 1 116 0
 279              		.cfi_startproc
 280              		@ args = 0, pretend = 0, frame = 0
 281              		@ frame_needed = 0, uses_anonymous_args = 0
 282 0000 08B5     		push	{r3, lr}
 283              		.cfi_def_cfa_offset 8
 284              		.cfi_offset 3, -8
 285              		.cfi_offset 14, -4
 119:TempSensorUnit.c ****     WriteByteToAdress(Amplifier_Config);
 286              		.loc 1 119 0
 287 0002 044B     		ldr	r3, .L28
 288 0004 D878     		ldrb	r0, [r3, #3]	@ zero_extendqisi2
 289 0006 40F00100 		orr	r0, r0, #1
 290 000a D870     		strb	r0, [r3, #3]
 120:TempSensorUnit.c **** }
 291              		.loc 1 120 0
 292 000c FFF7FEFF 		bl	WriteByteToAdress
 293              	.LVL19:
 294 0010 08BD     		pop	{r3, pc}
 295              	.L29:
 296 0012 00BF     		.align	2
 297              	.L28:
 298 0014 00000000 		.word	.LANCHOR0
 299              		.cfi_endproc
 300              	.LFE8:
 301              		.size	Set_FilterSetup, .-Set_FilterSetup
 302              		.section	.text.Amplifier_Setup,"ax",%progbits
 303              		.align	2
ARM GAS  C:\Users\nico_\AppData\Local\Temp\ccbBy9VR.s 			page 9


 304              		.global	Amplifier_Setup
 305              		.thumb
 306              		.thumb_func
 307              		.type	Amplifier_Setup, %function
 308              	Amplifier_Setup:
 309              	.LFB1:
  28:TempSensorUnit.c ****     SPI_Setup();
 310              		.loc 1 28 0
 311              		.cfi_startproc
 312              		@ args = 0, pretend = 0, frame = 0
 313              		@ frame_needed = 0, uses_anonymous_args = 0
 314 0000 08B5     		push	{r3, lr}
 315              		.cfi_def_cfa_offset 8
 316              		.cfi_offset 3, -8
 317              		.cfi_offset 14, -4
  29:TempSensorUnit.c ****     Set_WireSetup();
 318              		.loc 1 29 0
 319 0002 FFF7FEFF 		bl	SPI_Setup
 320              	.LVL20:
  30:TempSensorUnit.c ****     Set_FilterSetup();
 321              		.loc 1 30 0
 322 0006 FFF7FEFF 		bl	Set_WireSetup
 323              	.LVL21:
  31:TempSensorUnit.c **** }
 324              		.loc 1 31 0
 325 000a FFF7FEFF 		bl	Set_FilterSetup
 326              	.LVL22:
 327 000e 08BD     		pop	{r3, pc}
 328              		.cfi_endproc
 329              	.LFE1:
 330              		.size	Amplifier_Setup, .-Amplifier_Setup
 331              		.comm	rtd_ratio,2,2
 332              		.global	Amplifier_Config
 333              		.global	READ_RTD_LSB_Reg_Adress
 334              		.global	READ_RTD_MSB_Reg_Adress
 335              		.global	WRITE_Config_Reg_Adress
 336              		.global	READ_Config_Reg_Adress
 337              		.data
 338              		.set	.LANCHOR0,. + 0
 339              		.type	READ_RTD_MSB_Reg_Adress, %object
 340              		.size	READ_RTD_MSB_Reg_Adress, 1
 341              	READ_RTD_MSB_Reg_Adress:
 342 0000 01       		.byte	1
 343              		.type	READ_RTD_LSB_Reg_Adress, %object
 344              		.size	READ_RTD_LSB_Reg_Adress, 1
 345              	READ_RTD_LSB_Reg_Adress:
 346 0001 02       		.byte	2
 347              		.type	WRITE_Config_Reg_Adress, %object
 348              		.size	WRITE_Config_Reg_Adress, 1
 349              	WRITE_Config_Reg_Adress:
 350 0002 80       		.byte	-128
 351              		.type	Amplifier_Config, %object
 352              		.size	Amplifier_Config, 1
 353              	Amplifier_Config:
 354 0003 C0       		.byte	-64
 355              		.bss
 356              		.type	READ_Config_Reg_Adress, %object
ARM GAS  C:\Users\nico_\AppData\Local\Temp\ccbBy9VR.s 			page 10


 357              		.size	READ_Config_Reg_Adress, 1
 358              	READ_Config_Reg_Adress:
 359 0000 00       		.space	1
 360              		.text
 361              	.Letext0:
 362              		.file 2 "c:\\program files (x86)\\cypress\\psoc creator\\4.4\\psoc creator\\import\\gnu\\arm\\5.4.
 363              		.file 3 "c:\\program files (x86)\\cypress\\psoc creator\\4.4\\psoc creator\\import\\gnu\\arm\\5.4.
 364              		.file 4 "AmplifierRegisters.h"
 365              		.file 5 "Generated_Source\\PSoC5/SPIM_1.h"