ARM GAS  C:\Users\nico_\AppData\Local\Temp\ccztittR.s 			page 1


   1              		.syntax unified
   2              		.cpu cortex-m3
   3              		.fpu softvfp
   4              		.eabi_attribute 20, 1
   5              		.eabi_attribute 21, 1
   6              		.eabi_attribute 23, 3
   7              		.eabi_attribute 24, 1
   8              		.eabi_attribute 25, 1
   9              		.eabi_attribute 26, 1
  10              		.eabi_attribute 30, 1
  11              		.eabi_attribute 34, 1
  12              		.eabi_attribute 18, 4
  13              		.thumb
  14              		.syntax unified
  15              		.file	"Temperature.c"
  16              		.text
  17              	.Ltext0:
  18              		.cfi_sections	.debug_frame
  19              		.section	.text.Temperature_Setup,"ax",%progbits
  20              		.align	2
  21              		.global	Temperature_Setup
  22              		.thumb
  23              		.thumb_func
  24              		.type	Temperature_Setup, %function
  25              	Temperature_Setup:
  26              	.LFB1:
  27              		.file 1 "Temperature.c"
   1:Temperature.c **** /* ========================================
   2:Temperature.c ****  *
   3:Temperature.c ****  * Copyright YOUR COMPANY, THE YEAR
   4:Temperature.c ****  * All Rights Reserved
   5:Temperature.c ****  * UNPUBLISHED, LICENSED SOFTWARE.
   6:Temperature.c ****  *
   7:Temperature.c ****  * CONFIDENTIAL AND PROPRIETARY INFORMATION
   8:Temperature.c ****  * WHICH IS THE PROPERTY OF your company.
   9:Temperature.c ****  *
  10:Temperature.c ****  * ========================================
  11:Temperature.c **** */
  12:Temperature.c **** /*Include files*/
  13:Temperature.c **** #include "Temperature.h"
  14:Temperature.c **** #include "UART_1.h"
  15:Temperature.c **** 
  16:Temperature.c **** /*Delcared internal variables*/
  17:Temperature.c **** int32 Temperature;
  18:Temperature.c **** float temp_float;
  19:Temperature.c **** uint16_t Ref_resistance;
  20:Temperature.c **** 
  21:Temperature.c **** /*Declared internal functions*/
  22:Temperature.c **** void calc_temp(uint16 rtd_ratio);
  23:Temperature.c **** uint32_t calc_RTD_value(uint16 rtd_ratio);
  24:Temperature.c **** 
  25:Temperature.c **** 
  26:Temperature.c **** 
  27:Temperature.c **** 
  28:Temperature.c **** /*Setup of the internal reference resistance in the amplifier.
  29:Temperature.c **** The amplifier uses this for calculating the RTD/ref_res ratio stored in the
  30:Temperature.c **** RTD_MSB and RTD_LSB data registers*/
ARM GAS  C:\Users\nico_\AppData\Local\Temp\ccztittR.s 			page 2


  31:Temperature.c **** void Temperature_Setup(uint16_t ref_res)
  32:Temperature.c **** {
  28              		.loc 1 32 0
  29              		.cfi_startproc
  30              		@ args = 0, pretend = 0, frame = 0
  31              		@ frame_needed = 0, uses_anonymous_args = 0
  32              		@ link register save eliminated.
  33              	.LVL0:
  33:Temperature.c ****     Ref_resistance = ref_res;
  34              		.loc 1 33 0
  35 0000 024B     		ldr	r3, .L2
  36 0002 1880     		strh	r0, [r3]	@ movhi
  34:Temperature.c ****     Temperature = 0;
  37              		.loc 1 34 0
  38 0004 0022     		movs	r2, #0
  39 0006 024B     		ldr	r3, .L2+4
  40 0008 1A60     		str	r2, [r3]
  41 000a 7047     		bx	lr
  42              	.L3:
  43              		.align	2
  44              	.L2:
  45 000c 00000000 		.word	Ref_resistance
  46 0010 00000000 		.word	Temperature
  47              		.cfi_endproc
  48              	.LFE1:
  49              		.size	Temperature_Setup, .-Temperature_Setup
  50              		.section	.text.GetTemperature,"ax",%progbits
  51              		.align	2
  52              		.global	GetTemperature
  53              		.thumb
  54              		.thumb_func
  55              		.type	GetTemperature, %function
  56              	GetTemperature:
  57              	.LFB2:
  35:Temperature.c **** }
  36:Temperature.c **** 
  37:Temperature.c **** float GetTemperature()
  38:Temperature.c **** {
  58              		.loc 1 38 0
  59              		.cfi_startproc
  60              		@ args = 0, pretend = 0, frame = 0
  61              		@ frame_needed = 0, uses_anonymous_args = 0
  62              		@ link register save eliminated.
  39:Temperature.c ****     return temp_float; 
  40:Temperature.c **** }
  63              		.loc 1 40 0
  64 0000 014B     		ldr	r3, .L5
  65 0002 1868     		ldr	r0, [r3]	@ float
  66 0004 7047     		bx	lr
  67              	.L6:
  68 0006 00BF     		.align	2
  69              	.L5:
  70 0008 00000000 		.word	temp_float
  71              		.cfi_endproc
  72              	.LFE2:
  73              		.size	GetTemperature, .-GetTemperature
  74              		.global	__aeabi_i2d
ARM GAS  C:\Users\nico_\AppData\Local\Temp\ccztittR.s 			page 3


  75              		.global	__aeabi_dmul
  76              		.global	__aeabi_d2f
  77              		.global	__aeabi_fmul
  78              		.global	__aeabi_f2uiz
  79              		.section	.text.calc_RTD_value,"ax",%progbits
  80              		.align	2
  81              		.global	calc_RTD_value
  82              		.thumb
  83              		.thumb_func
  84              		.type	calc_RTD_value, %function
  85              	calc_RTD_value:
  86              	.LFB5:
  41:Temperature.c **** 
  42:Temperature.c **** void SetTemperature(uint16_t rtd_ratio)
  43:Temperature.c **** {
  44:Temperature.c ****     calc_temp(rtd_ratio);
  45:Temperature.c **** }
  46:Temperature.c **** 
  47:Temperature.c **** 
  48:Temperature.c **** 
  49:Temperature.c **** /*Caluculation of the temperature. Done with the RTD component in PSOC*/
  50:Temperature.c **** void calc_temp(uint16 rtd_ratio)
  51:Temperature.c **** {
  52:Temperature.c ****     uint32 rtd_res;
  53:Temperature.c ****     rtd_res = calc_RTD_value(rtd_ratio);
  54:Temperature.c ****     
  55:Temperature.c ****     Temperature = RTD_1_GetTemperature(rtd_res); //Uses the RTD calculator to calculate the tempera
  56:Temperature.c ****     temp_float = (float)Temperature/100;
  57:Temperature.c **** 
  58:Temperature.c **** }
  59:Temperature.c **** 
  60:Temperature.c **** /*Calculation of the RDT resistance based on the ratio
  61:Temperature.c **** measured by the amplifier. Returned in mili Ohm*/
  62:Temperature.c **** uint32_t calc_RTD_value(uint16 rtd_ratio)
  63:Temperature.c **** {
  87              		.loc 1 63 0
  88              		.cfi_startproc
  89              		@ args = 0, pretend = 0, frame = 0
  90              		@ frame_needed = 0, uses_anonymous_args = 0
  91              	.LVL1:
  92 0000 08B5     		push	{r3, lr}
  93              		.cfi_def_cfa_offset 8
  94              		.cfi_offset 3, -8
  95              		.cfi_offset 14, -4
  64:Temperature.c ****     
  65:Temperature.c ****     float rtd_res = (rtd_ratio*Ref_resistance)/pow(2,15); //Calculates the RTD resistance in mili O
  96              		.loc 1 65 0
  97 0002 094B     		ldr	r3, .L9
  98 0004 1B88     		ldrh	r3, [r3]
  99 0006 00FB03F0 		mul	r0, r0, r3
 100              	.LVL2:
 101 000a FFF7FEFF 		bl	__aeabi_i2d
 102              	.LVL3:
 103 000e 0022     		movs	r2, #0
 104 0010 4FF07C53 		mov	r3, #1056964608
 105 0014 FFF7FEFF 		bl	__aeabi_dmul
 106              	.LVL4:
ARM GAS  C:\Users\nico_\AppData\Local\Temp\ccztittR.s 			page 4


 107 0018 FFF7FEFF 		bl	__aeabi_d2f
 108              	.LVL5:
  66:Temperature.c ****     uint32 rtd_res_mOhm = rtd_res * 1000;
 109              		.loc 1 66 0
 110 001c 0349     		ldr	r1, .L9+4
 111 001e FFF7FEFF 		bl	__aeabi_fmul
 112              	.LVL6:
 113 0022 FFF7FEFF 		bl	__aeabi_f2uiz
 114              	.LVL7:
  67:Temperature.c ****     return rtd_res_mOhm;
  68:Temperature.c **** }
 115              		.loc 1 68 0
 116 0026 08BD     		pop	{r3, pc}
 117              	.L10:
 118              		.align	2
 119              	.L9:
 120 0028 00000000 		.word	Ref_resistance
 121 002c 00007A44 		.word	1148846080
 122              		.cfi_endproc
 123              	.LFE5:
 124              		.size	calc_RTD_value, .-calc_RTD_value
 125              		.global	__aeabi_i2f
 126              		.global	__aeabi_fdiv
 127              		.section	.text.calc_temp,"ax",%progbits
 128              		.align	2
 129              		.global	calc_temp
 130              		.thumb
 131              		.thumb_func
 132              		.type	calc_temp, %function
 133              	calc_temp:
 134              	.LFB4:
  51:Temperature.c ****     uint32 rtd_res;
 135              		.loc 1 51 0
 136              		.cfi_startproc
 137              		@ args = 0, pretend = 0, frame = 0
 138              		@ frame_needed = 0, uses_anonymous_args = 0
 139              	.LVL8:
 140 0000 08B5     		push	{r3, lr}
 141              		.cfi_def_cfa_offset 8
 142              		.cfi_offset 3, -8
 143              		.cfi_offset 14, -4
  53:Temperature.c ****     
 144              		.loc 1 53 0
 145 0002 FFF7FEFF 		bl	calc_RTD_value
 146              	.LVL9:
  55:Temperature.c ****     temp_float = (float)Temperature/100;
 147              		.loc 1 55 0
 148 0006 FFF7FEFF 		bl	RTD_1_GetTemperature
 149              	.LVL10:
 150 000a 054B     		ldr	r3, .L13
 151 000c 1860     		str	r0, [r3]
  56:Temperature.c **** 
 152              		.loc 1 56 0
 153 000e FFF7FEFF 		bl	__aeabi_i2f
 154              	.LVL11:
 155 0012 0449     		ldr	r1, .L13+4
 156 0014 FFF7FEFF 		bl	__aeabi_fdiv
ARM GAS  C:\Users\nico_\AppData\Local\Temp\ccztittR.s 			page 5


 157              	.LVL12:
 158 0018 034B     		ldr	r3, .L13+8
 159 001a 1860     		str	r0, [r3]	@ float
 160 001c 08BD     		pop	{r3, pc}
 161              	.L14:
 162 001e 00BF     		.align	2
 163              	.L13:
 164 0020 00000000 		.word	Temperature
 165 0024 0000C842 		.word	1120403456
 166 0028 00000000 		.word	temp_float
 167              		.cfi_endproc
 168              	.LFE4:
 169              		.size	calc_temp, .-calc_temp
 170              		.section	.text.SetTemperature,"ax",%progbits
 171              		.align	2
 172              		.global	SetTemperature
 173              		.thumb
 174              		.thumb_func
 175              		.type	SetTemperature, %function
 176              	SetTemperature:
 177              	.LFB3:
  43:Temperature.c ****     calc_temp(rtd_ratio);
 178              		.loc 1 43 0
 179              		.cfi_startproc
 180              		@ args = 0, pretend = 0, frame = 0
 181              		@ frame_needed = 0, uses_anonymous_args = 0
 182              	.LVL13:
 183 0000 08B5     		push	{r3, lr}
 184              		.cfi_def_cfa_offset 8
 185              		.cfi_offset 3, -8
 186              		.cfi_offset 14, -4
  44:Temperature.c **** }
 187              		.loc 1 44 0
 188 0002 FFF7FEFF 		bl	calc_temp
 189              	.LVL14:
 190 0006 08BD     		pop	{r3, pc}
 191              		.cfi_endproc
 192              	.LFE3:
 193              		.size	SetTemperature, .-SetTemperature
 194              		.comm	Ref_resistance,2,2
 195              		.comm	temp_float,4,4
 196              		.comm	Temperature,4,4
 197              		.text
 198              	.Letext0:
 199              		.file 2 "c:\\program files (x86)\\cypress\\psoc creator\\4.4\\psoc creator\\import\\gnu\\arm\\5.4.
 200              		.file 3 "c:\\program files (x86)\\cypress\\psoc creator\\4.4\\psoc creator\\import\\gnu\\arm\\5.4.
 201              		.file 4 "Generated_Source\\PSoC5/cytypes.h"
 202              		.file 5 "Generated_Source\\PSoC5/RTD_1.h"