ARM GAS  C:\Users\nico_\AppData\Local\Temp\cck4E70W.s 			page 1


   1              		.syntax unified
   2              		.cpu cortex-m3
   3              		.fpu softvfp
   4              		.eabi_attribute 20, 1
   5              		.eabi_attribute 21, 1
   6              		.eabi_attribute 23, 3
   7              		.eabi_attribute 24, 1
   8              		.eabi_attribute 25, 1
   9              		.eabi_attribute 26, 1
  10              		.eabi_attribute 30, 1
  11              		.eabi_attribute 34, 1
  12              		.eabi_attribute 18, 4
  13              		.thumb
  14              		.syntax unified
  15              		.file	"TemperatureUnitTest.c"
  16              		.text
  17              	.Ltext0:
  18              		.cfi_sections	.debug_frame
  19              		.section	.text.calc_RTD_value_RatiosSent_RTDresistancereceived,"ax",%progbits
  20              		.align	2
  21              		.global	calc_RTD_value_RatiosSent_RTDresistancereceived
  22              		.thumb
  23              		.thumb_func
  24              		.type	calc_RTD_value_RatiosSent_RTDresistancereceived, %function
  25              	calc_RTD_value_RatiosSent_RTDresistancereceived:
  26              	.LFB1:
  27              		.file 1 "TemperatureUnitTest.c"
   1:TemperatureUnitTest.c **** /* ========================================
   2:TemperatureUnitTest.c ****  *
   3:TemperatureUnitTest.c ****  * Copyright YOUR COMPANY, THE YEAR
   4:TemperatureUnitTest.c ****  * All Rights Reserved
   5:TemperatureUnitTest.c ****  * UNPUBLISHED, LICENSED SOFTWARE.
   6:TemperatureUnitTest.c ****  *
   7:TemperatureUnitTest.c ****  * CONFIDENTIAL AND PROPRIETARY INFORMATION
   8:TemperatureUnitTest.c ****  * WHICH IS THE PROPERTY OF your company.
   9:TemperatureUnitTest.c ****  *
  10:TemperatureUnitTest.c ****  * ========================================
  11:TemperatureUnitTest.c **** */
  12:TemperatureUnitTest.c **** #include "TemperatureUnitTest.h"
  13:TemperatureUnitTest.c **** 
  14:TemperatureUnitTest.c **** /*This test aims to verify that the correct RTD resistance is
  15:TemperatureUnitTest.c **** calculated based of the ratio given to the method.*/
  16:TemperatureUnitTest.c **** void calc_RTD_value_RatiosSent_RTDresistancereceived()
  17:TemperatureUnitTest.c **** {
  28              		.loc 1 17 0
  29              		.cfi_startproc
  30              		@ args = 0, pretend = 0, frame = 0
  31              		@ frame_needed = 0, uses_anonymous_args = 0
  32 0000 08B5     		push	{r3, lr}
  33              		.cfi_def_cfa_offset 8
  34              		.cfi_offset 3, -8
  35              		.cfi_offset 14, -4
  18:TemperatureUnitTest.c **** 
  19:TemperatureUnitTest.c ****     //Setup the temperature class with af reference resistance
  20:TemperatureUnitTest.c ****     Temperature_Setup(4300);
  36              		.loc 1 20 0
  37 0002 41F2CC00 		movw	r0, #4300
ARM GAS  C:\Users\nico_\AppData\Local\Temp\cck4E70W.s 			page 2


  38 0006 FFF7FEFF 		bl	Temperature_Setup
  39              	.LVL0:
  21:TemperatureUnitTest.c ****     
  22:TemperatureUnitTest.c ****     //Run the test
  23:TemperatureUnitTest.c ****     SetTemperature(7239);
  40              		.loc 1 23 0
  41 000a 41F64740 		movw	r0, #7239
  42 000e FFF7FEFF 		bl	SetTemperature
  43              	.LVL1:
  24:TemperatureUnitTest.c ****     SetTemperature(7620);
  44              		.loc 1 24 0
  45 0012 41F6C450 		movw	r0, #7620
  46 0016 FFF7FEFF 		bl	SetTemperature
  47              	.LVL2:
  25:TemperatureUnitTest.c ****     SetTemperature(8611);
  48              		.loc 1 25 0
  49 001a 42F2A310 		movw	r0, #8611
  50 001e FFF7FEFF 		bl	SetTemperature
  51              	.LVL3:
  52 0022 08BD     		pop	{r3, pc}
  53              		.cfi_endproc
  54              	.LFE1:
  55              		.size	calc_RTD_value_RatiosSent_RTDresistancereceived, .-calc_RTD_value_RatiosSent_RTDresistancere
  56              		.global	__aeabi_f2d
  57              		.section	.text.calc_Calctemp_RatiosSent_RTDresistancereceived,"ax",%progbits
  58              		.align	2
  59              		.global	calc_Calctemp_RatiosSent_RTDresistancereceived
  60              		.thumb
  61              		.thumb_func
  62              		.type	calc_Calctemp_RatiosSent_RTDresistancereceived, %function
  63              	calc_Calctemp_RatiosSent_RTDresistancereceived:
  64              	.LFB2:
  26:TemperatureUnitTest.c **** }
  27:TemperatureUnitTest.c **** 
  28:TemperatureUnitTest.c **** /*Test the resulting temperature if it corresponds with the
  29:TemperatureUnitTest.c **** Standard 60751 when feeding it with known RTD resistance values*/
  30:TemperatureUnitTest.c **** void calc_Calctemp_RatiosSent_RTDresistancereceived()
  31:TemperatureUnitTest.c **** {
  65              		.loc 1 31 0
  66              		.cfi_startproc
  67              		@ args = 0, pretend = 0, frame = 56
  68              		@ frame_needed = 0, uses_anonymous_args = 0
  69 0000 00B5     		push	{lr}
  70              		.cfi_def_cfa_offset 4
  71              		.cfi_offset 14, -4
  72 0002 8FB0     		sub	sp, sp, #60
  73              		.cfi_def_cfa_offset 64
  32:TemperatureUnitTest.c ****     //Setup the temperature class with af reference resistance
  33:TemperatureUnitTest.c ****     Temperature_Setup(4300);
  74              		.loc 1 33 0
  75 0004 41F2CC00 		movw	r0, #4300
  76 0008 FFF7FEFF 		bl	Temperature_Setup
  77              	.LVL4:
  34:TemperatureUnitTest.c ****     
  35:TemperatureUnitTest.c ****     UART_1_Start();
  78              		.loc 1 35 0
  79 000c FFF7FEFF 		bl	UART_1_Start
ARM GAS  C:\Users\nico_\AppData\Local\Temp\cck4E70W.s 			page 3


  80              	.LVL5:
  36:TemperatureUnitTest.c ****     //Run the test
  37:TemperatureUnitTest.c ****     SetTemperature(7232);
  81              		.loc 1 37 0
  82 0010 4FF4E250 		mov	r0, #7232
  83 0014 FFF7FEFF 		bl	SetTemperature
  84              	.LVL6:
  38:TemperatureUnitTest.c ****     char temp[50];
  39:TemperatureUnitTest.c ****             
  40:TemperatureUnitTest.c ****     float temp_string = GetTemperature();
  85              		.loc 1 40 0
  86 0018 FFF7FEFF 		bl	GetTemperature
  87              	.LVL7:
  41:TemperatureUnitTest.c ****     sprintf(temp,"RTD resistance value = 7232 Temperature: %f\n\r",temp_string);
  88              		.loc 1 41 0
  89 001c FFF7FEFF 		bl	__aeabi_f2d
  90              	.LVL8:
  91 0020 0246     		mov	r2, r0
  92 0022 0B46     		mov	r3, r1
  93 0024 1549     		ldr	r1, .L5
  94 0026 01A8     		add	r0, sp, #4
  95 0028 FFF7FEFF 		bl	sprintf
  96              	.LVL9:
  42:TemperatureUnitTest.c ****     UART_1_PutString(temp);
  97              		.loc 1 42 0
  98 002c 01A8     		add	r0, sp, #4
  99 002e FFF7FEFF 		bl	UART_1_PutString
 100              	.LVL10:
  43:TemperatureUnitTest.c ****     SetTemperature(7620);
 101              		.loc 1 43 0
 102 0032 41F6C450 		movw	r0, #7620
 103 0036 FFF7FEFF 		bl	SetTemperature
 104              	.LVL11:
  44:TemperatureUnitTest.c **** 
  45:TemperatureUnitTest.c ****             
  46:TemperatureUnitTest.c ****     temp_string = GetTemperature();
 105              		.loc 1 46 0
 106 003a FFF7FEFF 		bl	GetTemperature
 107              	.LVL12:
  47:TemperatureUnitTest.c ****     sprintf(temp,"RTD resistance value = 7620 Temperature: %f\n\r",temp_string);
 108              		.loc 1 47 0
 109 003e FFF7FEFF 		bl	__aeabi_f2d
 110              	.LVL13:
 111 0042 0246     		mov	r2, r0
 112 0044 0B46     		mov	r3, r1
 113 0046 0E49     		ldr	r1, .L5+4
 114 0048 01A8     		add	r0, sp, #4
 115 004a FFF7FEFF 		bl	sprintf
 116              	.LVL14:
  48:TemperatureUnitTest.c ****     UART_1_PutString(temp);
 117              		.loc 1 48 0
 118 004e 01A8     		add	r0, sp, #4
 119 0050 FFF7FEFF 		bl	UART_1_PutString
 120              	.LVL15:
  49:TemperatureUnitTest.c ****     SetTemperature(8598);
 121              		.loc 1 49 0
 122 0054 42F29610 		movw	r0, #8598
ARM GAS  C:\Users\nico_\AppData\Local\Temp\cck4E70W.s 			page 4


 123 0058 FFF7FEFF 		bl	SetTemperature
 124              	.LVL16:
  50:TemperatureUnitTest.c ****     
  51:TemperatureUnitTest.c ****             
  52:TemperatureUnitTest.c ****      temp_string = GetTemperature();
 125              		.loc 1 52 0
 126 005c FFF7FEFF 		bl	GetTemperature
 127              	.LVL17:
  53:TemperatureUnitTest.c ****     sprintf(temp,"RTD resistance value = 8598 Temperature: %f\n\r",temp_string);
 128              		.loc 1 53 0
 129 0060 FFF7FEFF 		bl	__aeabi_f2d
 130              	.LVL18:
 131 0064 0246     		mov	r2, r0
 132 0066 0B46     		mov	r3, r1
 133 0068 0649     		ldr	r1, .L5+8
 134 006a 01A8     		add	r0, sp, #4
 135 006c FFF7FEFF 		bl	sprintf
 136              	.LVL19:
  54:TemperatureUnitTest.c ****     UART_1_PutString(temp);
 137              		.loc 1 54 0
 138 0070 01A8     		add	r0, sp, #4
 139 0072 FFF7FEFF 		bl	UART_1_PutString
 140              	.LVL20:
  55:TemperatureUnitTest.c **** 
  56:TemperatureUnitTest.c **** }
 141              		.loc 1 56 0
 142 0076 0FB0     		add	sp, sp, #60
 143              		.cfi_def_cfa_offset 4
 144              		@ sp needed
 145 0078 5DF804FB 		ldr	pc, [sp], #4
 146              	.L6:
 147              		.align	2
 148              	.L5:
 149 007c 00000000 		.word	.LC0
 150 0080 30000000 		.word	.LC1
 151 0084 60000000 		.word	.LC2
 152              		.cfi_endproc
 153              	.LFE2:
 154              		.size	calc_Calctemp_RatiosSent_RTDresistancereceived, .-calc_Calctemp_RatiosSent_RTDresistancerece
 155              		.section	.rodata.str1.4,"aMS",%progbits,1
 156              		.align	2
 157              	.LC0:
 158 0000 52544420 		.ascii	"RTD resistance value = 7232 Temperature: %f\012\015"
 158      72657369 
 158      7374616E 
 158      63652076 
 158      616C7565 
 159 002d 00       		.ascii	"\000"
 160 002e 0000     		.space	2
 161              	.LC1:
 162 0030 52544420 		.ascii	"RTD resistance value = 7620 Temperature: %f\012\015"
 162      72657369 
 162      7374616E 
 162      63652076 
 162      616C7565 
 163 005d 00       		.ascii	"\000"
 164 005e 0000     		.space	2
ARM GAS  C:\Users\nico_\AppData\Local\Temp\cck4E70W.s 			page 5


 165              	.LC2:
 166 0060 52544420 		.ascii	"RTD resistance value = 8598 Temperature: %f\012\015"
 166      72657369 
 166      7374616E 
 166      63652076 
 166      616C7565 
 167 008d 00       		.ascii	"\000"
 168              		.text
 169              	.Letext0:
 170              		.file 2 "Temperature.h"
 171              		.file 3 "Generated_Source\\PSoC5/UART_1.h"
 172              		.file 4 "c:\\program files (x86)\\cypress\\psoc creator\\4.4\\psoc creator\\import\\gnu\\arm\\5.4.