ARM GAS  C:\Users\nico_\AppData\Local\Temp\ccOvts1p.s 			page 1


   1              		.syntax unified
   2              		.cpu cortex-m3
   3              		.fpu softvfp
   4              		.eabi_attribute 20, 1
   5              		.eabi_attribute 21, 1
   6              		.eabi_attribute 23, 3
   7              		.eabi_attribute 24, 1
   8              		.eabi_attribute 25, 1
   9              		.eabi_attribute 26, 1
  10              		.eabi_attribute 30, 1
  11              		.eabi_attribute 34, 1
  12              		.eabi_attribute 18, 4
  13              		.thumb
  14              		.syntax unified
  15              		.file	"VDAC_test.c"
  16              		.text
  17              	.Ltext0:
  18              		.cfi_sections	.debug_frame
  19              		.section	.text.VDAC_test_run,"ax",%progbits
  20              		.align	2
  21              		.global	VDAC_test_run
  22              		.thumb
  23              		.thumb_func
  24              		.type	VDAC_test_run, %function
  25              	VDAC_test_run:
  26              	.LFB1:
  27              		.file 1 "VDAC_test.c"
   1:VDAC_test.c   **** /* ========================================
   2:VDAC_test.c   ****  *
   3:VDAC_test.c   ****  * Copyright YOUR COMPANY, THE YEAR
   4:VDAC_test.c   ****  * All Rights Reserved
   5:VDAC_test.c   ****  * UNPUBLISHED, LICENSED SOFTWARE.
   6:VDAC_test.c   ****  *
   7:VDAC_test.c   ****  * CONFIDENTIAL AND PROPRIETARY INFORMATION
   8:VDAC_test.c   ****  * WHICH IS THE PROPERTY OF your company.
   9:VDAC_test.c   ****  *
  10:VDAC_test.c   ****  * ========================================
  11:VDAC_test.c   **** */
  12:VDAC_test.c   **** 
  13:VDAC_test.c   **** #include "VDAC8_1.h"
  14:VDAC_test.c   **** #include "PGA_1.h"
  15:VDAC_test.c   **** #include "UART_1.h"
  16:VDAC_test.c   **** #include "ReceiveBytes.h"
  17:VDAC_test.c   **** #include "VDAC_test.h"
  18:VDAC_test.c   **** #include <stdio.h>
  19:VDAC_test.c   **** uint8 speed;
  20:VDAC_test.c   **** float voltage;
  21:VDAC_test.c   **** static char outputBuffer[256];
  22:VDAC_test.c   **** 
  23:VDAC_test.c   **** 
  24:VDAC_test.c   **** void VDAC_test_run()
  25:VDAC_test.c   **** {
  28              		.loc 1 25 0
  29              		.cfi_startproc
  30              		@ Volatile: function does not return.
  31              		@ args = 0, pretend = 0, frame = 0
  32              		@ frame_needed = 0, uses_anonymous_args = 0
ARM GAS  C:\Users\nico_\AppData\Local\Temp\ccOvts1p.s 			page 2


  33 0000 08B5     		push	{r3, lr}
  34              		.cfi_def_cfa_offset 8
  35              		.cfi_offset 3, -8
  36              		.cfi_offset 14, -4
  26:VDAC_test.c   ****     isr_uart_rx_StartEx(ISR_UART_rx_handler);
  37              		.loc 1 26 0
  38 0002 0948     		ldr	r0, .L4
  39 0004 FFF7FEFF 		bl	isr_uart_rx_StartEx
  40              	.LVL0:
  27:VDAC_test.c   ****     UART_1_Start();
  41              		.loc 1 27 0
  42 0008 FFF7FEFF 		bl	UART_1_Start
  43              	.LVL1:
  28:VDAC_test.c   ****     UART_1_PutString("VDAC test begun: \r\n");
  44              		.loc 1 28 0
  45 000c 0748     		ldr	r0, .L4+4
  46 000e FFF7FEFF 		bl	UART_1_PutString
  47              	.LVL2:
  29:VDAC_test.c   ****     UART_1_PutString("Initial speed = 0. \r\n");
  48              		.loc 1 29 0
  49 0012 0748     		ldr	r0, .L4+8
  50 0014 FFF7FEFF 		bl	UART_1_PutString
  51              	.LVL3:
  30:VDAC_test.c   ****     VDAC8_1_Start();
  52              		.loc 1 30 0
  53 0018 FFF7FEFF 		bl	VDAC8_1_Start
  54              	.LVL4:
  31:VDAC_test.c   ****     PGA_1_Start();  
  55              		.loc 1 31 0
  56 001c FFF7FEFF 		bl	PGA_1_Start
  57              	.LVL5:
  32:VDAC_test.c   ****     speed = 0;
  58              		.loc 1 32 0
  59 0020 0022     		movs	r2, #0
  60 0022 044B     		ldr	r3, .L4+12
  61 0024 1A70     		strb	r2, [r3]
  62              	.L2:
  63 0026 FEE7     		b	.L2
  64              	.L5:
  65              		.align	2
  66              	.L4:
  67 0028 00000000 		.word	ISR_UART_rx_handler
  68 002c 00000000 		.word	.LC0
  69 0030 14000000 		.word	.LC1
  70 0034 00000000 		.word	speed
  71              		.cfi_endproc
  72              	.LFE1:
  73              		.size	VDAC_test_run, .-VDAC_test_run
  74              		.global	__aeabi_ui2f
  75              		.global	__aeabi_fdiv
  76              		.global	__aeabi_fmul
  77              		.global	__aeabi_fadd
  78              		.global	__aeabi_f2d
  79              		.section	.text.handleByteReceived,"ax",%progbits
  80              		.align	2
  81              		.global	handleByteReceived
  82              		.thumb
ARM GAS  C:\Users\nico_\AppData\Local\Temp\ccOvts1p.s 			page 3


  83              		.thumb_func
  84              		.type	handleByteReceived, %function
  85              	handleByteReceived:
  86              	.LFB3:
  33:VDAC_test.c   ****     
  34:VDAC_test.c   ****     for(;;)
  35:VDAC_test.c   ****     {
  36:VDAC_test.c   ****         
  37:VDAC_test.c   ****     }
  38:VDAC_test.c   ****     
  39:VDAC_test.c   **** }
  40:VDAC_test.c   **** 
  41:VDAC_test.c   **** CY_ISR(ISR_UART_rx_handler)
  42:VDAC_test.c   **** {
  43:VDAC_test.c   ****     uint8_t bytesToRead = UART_1_GetRxBufferSize();
  44:VDAC_test.c   ****     while (bytesToRead > 0)
  45:VDAC_test.c   ****     {
  46:VDAC_test.c   ****         uint8_t byteReceived = UART_1_ReadRxData();
  47:VDAC_test.c   ****         UART_1_WriteTxData(byteReceived); // echo back
  48:VDAC_test.c   ****         
  49:VDAC_test.c   ****         handleByteReceived(byteReceived);
  50:VDAC_test.c   ****         
  51:VDAC_test.c   ****         bytesToRead--;
  52:VDAC_test.c   ****     }
  53:VDAC_test.c   **** }
  54:VDAC_test.c   **** 
  55:VDAC_test.c   **** void handleByteReceived(uint8_t byteReceived)
  56:VDAC_test.c   **** {
  87              		.loc 1 56 0
  88              		.cfi_startproc
  89              		@ args = 0, pretend = 0, frame = 0
  90              		@ frame_needed = 0, uses_anonymous_args = 0
  91              	.LVL6:
  92 0000 70B5     		push	{r4, r5, r6, lr}
  93              		.cfi_def_cfa_offset 16
  94              		.cfi_offset 4, -16
  95              		.cfi_offset 5, -12
  96              		.cfi_offset 6, -8
  97              		.cfi_offset 14, -4
  98 0002 82B0     		sub	sp, sp, #8
  99              		.cfi_def_cfa_offset 24
  57:VDAC_test.c   ****     switch(byteReceived)
 100              		.loc 1 57 0
 101 0004 6828     		cmp	r0, #104
 102 0006 02D0     		beq	.L8
 103 0008 6C28     		cmp	r0, #108
 104 000a 32D0     		beq	.L9
 105 000c 4DE0     		b	.L6
 106              	.L8:
  58:VDAC_test.c   ****     {
  59:VDAC_test.c   ****         case 'h' :
  60:VDAC_test.c   ****         {
  61:VDAC_test.c   ****             if(speed >=255)
 107              		.loc 1 61 0
 108 000e 284B     		ldr	r3, .L15
 109 0010 1B78     		ldrb	r3, [r3]	@ zero_extendqisi2
 110 0012 FF2B     		cmp	r3, #255
ARM GAS  C:\Users\nico_\AppData\Local\Temp\ccOvts1p.s 			page 4


 111 0014 06D1     		bne	.L10
  62:VDAC_test.c   ****             {
  63:VDAC_test.c   ****                 speed = 255;
 112              		.loc 1 63 0
 113 0016 FF22     		movs	r2, #255
 114 0018 254B     		ldr	r3, .L15
 115 001a 1A70     		strb	r2, [r3]
  64:VDAC_test.c   ****                 UART_1_PutString("Speed at max");
 116              		.loc 1 64 0
 117 001c 2548     		ldr	r0, .L15+4
 118              	.LVL7:
 119 001e FFF7FEFF 		bl	UART_1_PutString
 120              	.LVL8:
 121 0022 02E0     		b	.L11
 122              	.LVL9:
 123              	.L10:
  65:VDAC_test.c   ****             }else
  66:VDAC_test.c   ****             {
  67:VDAC_test.c   ****                 speed += 1;
 124              		.loc 1 67 0
 125 0024 0133     		adds	r3, r3, #1
 126 0026 224A     		ldr	r2, .L15
 127 0028 1370     		strb	r3, [r2]
 128              	.LVL10:
 129              	.L11:
  68:VDAC_test.c   ****             }
  69:VDAC_test.c   ****             
  70:VDAC_test.c   ****             voltage = ((float)speed/255)*4096*2;
 130              		.loc 1 70 0
 131 002a 214C     		ldr	r4, .L15
 132 002c 2678     		ldrb	r6, [r4]	@ zero_extendqisi2
 133 002e 3046     		mov	r0, r6
 134 0030 FFF7FEFF 		bl	__aeabi_ui2f
 135              	.LVL11:
 136 0034 2049     		ldr	r1, .L15+8
 137 0036 FFF7FEFF 		bl	__aeabi_fdiv
 138              	.LVL12:
 139 003a 4FF08B41 		mov	r1, #1166016512
 140 003e FFF7FEFF 		bl	__aeabi_fmul
 141              	.LVL13:
 142 0042 0146     		mov	r1, r0
 143 0044 FFF7FEFF 		bl	__aeabi_fadd
 144              	.LVL14:
 145 0048 1C4B     		ldr	r3, .L15+12
 146 004a 1860     		str	r0, [r3]	@ float
  71:VDAC_test.c   ****             
  72:VDAC_test.c   ****             snprintf(outputBuffer, sizeof(outputBuffer), "Speed = %u and Voltage = %f mV \r\n",spee
 147              		.loc 1 72 0
 148 004c 1C4D     		ldr	r5, .L15+16
 149 004e FFF7FEFF 		bl	__aeabi_f2d
 150              	.LVL15:
 151 0052 CDE90001 		strd	r0, [sp]
 152 0056 3346     		mov	r3, r6
 153 0058 1A4A     		ldr	r2, .L15+20
 154 005a 4FF48071 		mov	r1, #256
 155 005e 2846     		mov	r0, r5
 156 0060 FFF7FEFF 		bl	snprintf
ARM GAS  C:\Users\nico_\AppData\Local\Temp\ccOvts1p.s 			page 5


 157              	.LVL16:
  73:VDAC_test.c   ****             UART_1_PutString(outputBuffer);
 158              		.loc 1 73 0
 159 0064 2846     		mov	r0, r5
 160 0066 FFF7FEFF 		bl	UART_1_PutString
 161              	.LVL17:
  74:VDAC_test.c   ****             VDAC8_1_SetValue(speed);
 162              		.loc 1 74 0
 163 006a 2078     		ldrb	r0, [r4]	@ zero_extendqisi2
 164 006c FFF7FEFF 		bl	VDAC8_1_SetValue
 165              	.LVL18:
  75:VDAC_test.c   ****             
  76:VDAC_test.c   ****         }
  77:VDAC_test.c   ****         break; 
 166              		.loc 1 77 0
 167 0070 1BE0     		b	.L6
 168              	.LVL19:
 169              	.L9:
  78:VDAC_test.c   ****         case 'l' :
  79:VDAC_test.c   ****         {
  80:VDAC_test.c   ****             if(speed <=0)
 170              		.loc 1 80 0
 171 0072 0F4B     		ldr	r3, .L15
 172 0074 1B78     		ldrb	r3, [r3]	@ zero_extendqisi2
 173 0076 33B9     		cbnz	r3, .L12
  81:VDAC_test.c   ****             {
  82:VDAC_test.c   ****                 speed = 0;
 174              		.loc 1 82 0
 175 0078 0022     		movs	r2, #0
 176 007a 0D4B     		ldr	r3, .L15
 177 007c 1A70     		strb	r2, [r3]
  83:VDAC_test.c   ****                 UART_1_PutString("Speed at minimum");
 178              		.loc 1 83 0
 179 007e 1248     		ldr	r0, .L15+24
 180              	.LVL20:
 181 0080 FFF7FEFF 		bl	UART_1_PutString
 182              	.LVL21:
 183 0084 02E0     		b	.L13
 184              	.LVL22:
 185              	.L12:
  84:VDAC_test.c   ****             }else
  85:VDAC_test.c   ****             {
  86:VDAC_test.c   ****                 speed -= 1;
 186              		.loc 1 86 0
 187 0086 013B     		subs	r3, r3, #1
 188 0088 094A     		ldr	r2, .L15
 189 008a 1370     		strb	r3, [r2]
 190              	.LVL23:
 191              	.L13:
  87:VDAC_test.c   ****             }
  88:VDAC_test.c   ****             snprintf(outputBuffer, sizeof(outputBuffer), "Speed = %u \r\n",speed);
 192              		.loc 1 88 0
 193 008c 084C     		ldr	r4, .L15
 194 008e 0C4D     		ldr	r5, .L15+16
 195 0090 2378     		ldrb	r3, [r4]	@ zero_extendqisi2
 196 0092 0E4A     		ldr	r2, .L15+28
 197 0094 4FF48071 		mov	r1, #256
ARM GAS  C:\Users\nico_\AppData\Local\Temp\ccOvts1p.s 			page 6


 198 0098 2846     		mov	r0, r5
 199 009a FFF7FEFF 		bl	snprintf
 200              	.LVL24:
  89:VDAC_test.c   ****             UART_1_PutString(outputBuffer);
 201              		.loc 1 89 0
 202 009e 2846     		mov	r0, r5
 203 00a0 FFF7FEFF 		bl	UART_1_PutString
 204              	.LVL25:
  90:VDAC_test.c   ****             VDAC8_1_SetValue(speed);
 205              		.loc 1 90 0
 206 00a4 2078     		ldrb	r0, [r4]	@ zero_extendqisi2
 207 00a6 FFF7FEFF 		bl	VDAC8_1_SetValue
 208              	.LVL26:
 209              	.L6:
  91:VDAC_test.c   ****             
  92:VDAC_test.c   ****         }
  93:VDAC_test.c   ****         break;
  94:VDAC_test.c   **** 
  95:VDAC_test.c   ****     }
  96:VDAC_test.c   **** }
 210              		.loc 1 96 0
 211 00aa 02B0     		add	sp, sp, #8
 212              		.cfi_def_cfa_offset 16
 213              		@ sp needed
 214 00ac 70BD     		pop	{r4, r5, r6, pc}
 215              	.L16:
 216 00ae 00BF     		.align	2
 217              	.L15:
 218 00b0 00000000 		.word	speed
 219 00b4 2C000000 		.word	.LC2
 220 00b8 00007F43 		.word	1132396544
 221 00bc 00000000 		.word	voltage
 222 00c0 00000000 		.word	.LANCHOR0
 223 00c4 3C000000 		.word	.LC3
 224 00c8 60000000 		.word	.LC4
 225 00cc 74000000 		.word	.LC5
 226              		.cfi_endproc
 227              	.LFE3:
 228              		.size	handleByteReceived, .-handleByteReceived
 229              		.section	.text.ISR_UART_rx_handler,"ax",%progbits
 230              		.align	2
 231              		.global	ISR_UART_rx_handler
 232              		.thumb
 233              		.thumb_func
 234              		.type	ISR_UART_rx_handler, %function
 235              	ISR_UART_rx_handler:
 236              	.LFB2:
  42:VDAC_test.c   ****     uint8_t bytesToRead = UART_1_GetRxBufferSize();
 237              		.loc 1 42 0
 238              		.cfi_startproc
 239              		@ args = 0, pretend = 0, frame = 0
 240              		@ frame_needed = 0, uses_anonymous_args = 0
 241 0000 38B5     		push	{r3, r4, r5, lr}
 242              		.cfi_def_cfa_offset 16
 243              		.cfi_offset 3, -16
 244              		.cfi_offset 4, -12
 245              		.cfi_offset 5, -8
ARM GAS  C:\Users\nico_\AppData\Local\Temp\ccOvts1p.s 			page 7


 246              		.cfi_offset 14, -4
  43:VDAC_test.c   ****     while (bytesToRead > 0)
 247              		.loc 1 43 0
 248 0002 FFF7FEFF 		bl	UART_1_GetRxBufferSize
 249              	.LVL27:
 250 0006 0446     		mov	r4, r0
 251              	.LVL28:
  44:VDAC_test.c   ****     {
 252              		.loc 1 44 0
 253 0008 09E0     		b	.L18
 254              	.L19:
 255              	.LBB2:
  46:VDAC_test.c   ****         UART_1_WriteTxData(byteReceived); // echo back
 256              		.loc 1 46 0
 257 000a FFF7FEFF 		bl	UART_1_ReadRxData
 258              	.LVL29:
 259 000e 0546     		mov	r5, r0
 260              	.LVL30:
  47:VDAC_test.c   ****         
 261              		.loc 1 47 0
 262 0010 FFF7FEFF 		bl	UART_1_WriteTxData
 263              	.LVL31:
  49:VDAC_test.c   ****         
 264              		.loc 1 49 0
 265 0014 2846     		mov	r0, r5
 266 0016 FFF7FEFF 		bl	handleByteReceived
 267              	.LVL32:
  51:VDAC_test.c   ****     }
 268              		.loc 1 51 0
 269 001a 013C     		subs	r4, r4, #1
 270              	.LVL33:
 271 001c E4B2     		uxtb	r4, r4
 272              	.LVL34:
 273              	.L18:
 274              	.LBE2:
  44:VDAC_test.c   ****     {
 275              		.loc 1 44 0
 276 001e 002C     		cmp	r4, #0
 277 0020 F3D1     		bne	.L19
  53:VDAC_test.c   **** 
 278              		.loc 1 53 0
 279 0022 38BD     		pop	{r3, r4, r5, pc}
 280              		.cfi_endproc
 281              	.LFE2:
 282              		.size	ISR_UART_rx_handler, .-ISR_UART_rx_handler
 283              		.comm	voltage,4,4
 284              		.comm	speed,1,1
 285              		.section	.rodata.str1.4,"aMS",%progbits,1
 286              		.align	2
 287              	.LC0:
 288 0000 56444143 		.ascii	"VDAC test begun: \015\012\000"
 288      20746573 
 288      74206265 
 288      67756E3A 
 288      200D0A00 
 289              	.LC1:
 290 0014 496E6974 		.ascii	"Initial speed = 0. \015\012\000"
ARM GAS  C:\Users\nico_\AppData\Local\Temp\ccOvts1p.s 			page 8


 290      69616C20 
 290      73706565 
 290      64203D20 
 290      302E200D 
 291 002a 0000     		.space	2
 292              	.LC2:
 293 002c 53706565 		.ascii	"Speed at max\000"
 293      64206174 
 293      206D6178 
 293      00
 294 0039 000000   		.space	3
 295              	.LC3:
 296 003c 53706565 		.ascii	"Speed = %u and Voltage = %f mV \015\012\000"
 296      64203D20 
 296      25752061 
 296      6E642056 
 296      6F6C7461 
 297 005e 0000     		.space	2
 298              	.LC4:
 299 0060 53706565 		.ascii	"Speed at minimum\000"
 299      64206174 
 299      206D696E 
 299      696D756D 
 299      00
 300 0071 000000   		.space	3
 301              	.LC5:
 302 0074 53706565 		.ascii	"Speed = %u \015\012\000"
 302      64203D20 
 302      2575200D 
 302      0A00
 303              		.bss
 304              		.align	2
 305              		.set	.LANCHOR0,. + 0
 306              		.type	outputBuffer, %object
 307              		.size	outputBuffer, 256
 308              	outputBuffer:
 309 0000 00000000 		.space	256
 309      00000000 
 309      00000000 
 309      00000000 
 309      00000000 
 310              		.text
 311              	.Letext0:
 312              		.file 2 "c:\\program files (x86)\\cypress\\psoc creator\\4.4\\psoc creator\\import\\gnu\\arm\\5.4.
 313              		.file 3 "c:\\program files (x86)\\cypress\\psoc creator\\4.4\\psoc creator\\import\\gnu\\arm\\5.4.
 314              		.file 4 "Generated_Source\\PSoC5/cytypes.h"
 315              		.file 5 "Generated_Source\\PSoC5/isr_uart_rx.h"
 316              		.file 6 "Generated_Source\\PSoC5/UART_1.h"
 317              		.file 7 "Generated_Source\\PSoC5/VDAC8_1.h"
 318              		.file 8 "Generated_Source\\PSoC5/PGA_1.h"
 319              		.file 9 "c:\\program files (x86)\\cypress\\psoc creator\\4.4\\psoc creator\\import\\gnu\\arm\\5.4.