ARM GAS  C:\Users\nico_\AppData\Local\Temp\ccpIP4y8.s 			page 1


   1              		.syntax unified
   2              		.cpu cortex-m3
   3              		.fpu softvfp
   4              		.eabi_attribute 20, 1
   5              		.eabi_attribute 21, 1
   6              		.eabi_attribute 23, 3
   7              		.eabi_attribute 24, 1
   8              		.eabi_attribute 25, 1
   9              		.eabi_attribute 26, 1
  10              		.eabi_attribute 30, 1
  11              		.eabi_attribute 34, 1
  12              		.eabi_attribute 18, 4
  13              		.thumb
  14              		.syntax unified
  15              		.file	"ModuleTest.c"
  16              		.text
  17              	.Ltext0:
  18              		.cfi_sections	.debug_frame
  19              		.section	.text.Init_testsetup,"ax",%progbits
  20              		.align	2
  21              		.global	Init_testsetup
  22              		.thumb
  23              		.thumb_func
  24              		.type	Init_testsetup, %function
  25              	Init_testsetup:
  26              	.LFB64:
  27              		.file 1 "ModuleTest.c"
   1:ModuleTest.c  **** /* ========================================
   2:ModuleTest.c  ****  *
   3:ModuleTest.c  ****  * Copyright YOUR COMPANY, THE YEAR
   4:ModuleTest.c  ****  * All Rights Reserved
   5:ModuleTest.c  ****  * UNPUBLISHED, LICENSED SOFTWARE.
   6:ModuleTest.c  ****  *
   7:ModuleTest.c  ****  * CONFIDENTIAL AND PROPRIETARY INFORMATION
   8:ModuleTest.c  ****  * WHICH IS THE PROPERTY OF your company.
   9:ModuleTest.c  ****  *
  10:ModuleTest.c  ****  * ========================================
  11:ModuleTest.c  **** */
  12:ModuleTest.c  **** #include "ModuleTest.h"
  13:ModuleTest.c  **** CY_ISR_PROTO(ISR_UART_rx_handler);
  14:ModuleTest.c  **** void handleByteReceived(uint8_t byteReceived);
  15:ModuleTest.c  **** 
  16:ModuleTest.c  **** float Speed = 0.496*256 / 4.096;
  17:ModuleTest.c  **** float Vout = 0.496;
  18:ModuleTest.c  **** static char outputBuffer[256];
  19:ModuleTest.c  **** 
  20:ModuleTest.c  **** uint8 start = 0;
  21:ModuleTest.c  **** 
  22:ModuleTest.c  **** void Init_testsetup()
  23:ModuleTest.c  **** {
  28              		.loc 1 23 0
  29              		.cfi_startproc
  30              		@ args = 0, pretend = 0, frame = 0
  31              		@ frame_needed = 0, uses_anonymous_args = 0
  32 0000 08B5     		push	{r3, lr}
  33              		.cfi_def_cfa_offset 8
  34              		.cfi_offset 3, -8
ARM GAS  C:\Users\nico_\AppData\Local\Temp\ccpIP4y8.s 			page 2


  35              		.cfi_offset 14, -4
  24:ModuleTest.c  ****       
  25:ModuleTest.c  ****     CyGlobalIntEnable; /* Enable global interrupts. */
  36              		.loc 1 25 0
  37              		.syntax unified
  38              	@ 25 "ModuleTest.c" 1
  39 0002 62B6     		CPSIE   i
  40              	@ 0 "" 2
  26:ModuleTest.c  ****     isr_uart_rx_StartEx(ISR_UART_rx_handler); /* setup uart interrupt handle */
  41              		.loc 1 26 0
  42              		.thumb
  43              		.syntax unified
  44 0004 0348     		ldr	r0, .L3
  45 0006 FFF7FEFF 		bl	isr_uart_rx_StartEx
  46              	.LVL0:
  27:ModuleTest.c  ****     UART_1_Start(); /* start uart */
  47              		.loc 1 27 0
  48 000a FFF7FEFF 		bl	UART_1_Start
  49              	.LVL1:
  28:ModuleTest.c  ****     PGA_1_Start();
  50              		.loc 1 28 0
  51 000e FFF7FEFF 		bl	PGA_1_Start
  52              	.LVL2:
  53 0012 08BD     		pop	{r3, pc}
  54              	.L4:
  55              		.align	2
  56              	.L3:
  57 0014 00000000 		.word	ISR_UART_rx_handler
  58              		.cfi_endproc
  59              	.LFE64:
  60              		.size	Init_testsetup, .-Init_testsetup
  61              		.global	__aeabi_f2d
  62              		.section	.text.Start_test,"ax",%progbits
  63              		.align	2
  64              		.global	Start_test
  65              		.thumb
  66              		.thumb_func
  67              		.type	Start_test, %function
  68              	Start_test:
  69              	.LFB65:
  29:ModuleTest.c  ****     
  30:ModuleTest.c  **** 
  31:ModuleTest.c  **** }
  32:ModuleTest.c  **** 
  33:ModuleTest.c  **** 
  34:ModuleTest.c  **** void Start_test()
  35:ModuleTest.c  **** {
  70              		.loc 1 35 0
  71              		.cfi_startproc
  72              		@ Volatile: function does not return.
  73              		@ args = 0, pretend = 0, frame = 0
  74              		@ frame_needed = 0, uses_anonymous_args = 0
  75              	.L6:
  36:ModuleTest.c  ****      while(start == 0) /* Wait for start signal from actor */
  76              		.loc 1 36 0 discriminator 1
  77 0000 104B     		ldr	r3, .L9
  78 0002 1B78     		ldrb	r3, [r3]	@ zero_extendqisi2
ARM GAS  C:\Users\nico_\AppData\Local\Temp\ccpIP4y8.s 			page 3


  79 0004 002B     		cmp	r3, #0
  80 0006 FBD0     		beq	.L6
  35:ModuleTest.c  ****      while(start == 0) /* Wait for start signal from actor */
  81              		.loc 1 35 0
  82 0008 00B5     		push	{lr}
  83              		.cfi_def_cfa_offset 4
  84              		.cfi_offset 14, -4
  85 000a 85B0     		sub	sp, sp, #20
  86              		.cfi_def_cfa_offset 24
  37:ModuleTest.c  ****     {
  38:ModuleTest.c  ****     }
  39:ModuleTest.c  ****     
  40:ModuleTest.c  ****     VDAC8_1_Start(); /* Start VDAC */
  87              		.loc 1 40 0
  88 000c FFF7FEFF 		bl	VDAC8_1_Start
  89              	.LVL3:
  41:ModuleTest.c  **** 
  42:ModuleTest.c  ****     UART_1_PutString("VDAC started \r\n"); 
  90              		.loc 1 42 0
  91 0010 0D48     		ldr	r0, .L9+4
  92 0012 FFF7FEFF 		bl	UART_1_PutString
  93              	.LVL4:
  43:ModuleTest.c  ****     snprintf(outputBuffer, sizeof(outputBuffer), "Initial Speed %f corresponding voltage %f \r\n", 
  94              		.loc 1 43 0
  95 0016 0D4C     		ldr	r4, .L9+8
  96 0018 0D4D     		ldr	r5, .L9+12
  97 001a 2868     		ldr	r0, [r5]	@ float
  98 001c FFF7FEFF 		bl	__aeabi_f2d
  99              	.LVL5:
 100 0020 CDE90201 		strd	r0, [sp, #8]
 101 0024 6868     		ldr	r0, [r5, #4]	@ float
 102 0026 FFF7FEFF 		bl	__aeabi_f2d
 103              	.LVL6:
 104 002a CDE90001 		strd	r0, [sp]
 105 002e 094A     		ldr	r2, .L9+16
 106 0030 4FF48071 		mov	r1, #256
 107 0034 2046     		mov	r0, r4
 108 0036 FFF7FEFF 		bl	snprintf
 109              	.LVL7:
  44:ModuleTest.c  ****     UART_1_PutString(outputBuffer);  /* Output initial status message - VDAC started, initial speed
 110              		.loc 1 44 0
 111 003a 2046     		mov	r0, r4
 112 003c FFF7FEFF 		bl	UART_1_PutString
 113              	.LVL8:
 114              	.L7:
 115 0040 FEE7     		b	.L7
 116              	.L10:
 117 0042 00BF     		.align	2
 118              	.L9:
 119 0044 00000000 		.word	.LANCHOR0
 120 0048 00000000 		.word	.LC0
 121 004c 04000000 		.word	.LANCHOR0+4
 122 0050 00000000 		.word	.LANCHOR1
 123 0054 10000000 		.word	.LC1
 124              		.cfi_endproc
 125              	.LFE65:
 126              		.size	Start_test, .-Start_test
ARM GAS  C:\Users\nico_\AppData\Local\Temp\ccpIP4y8.s 			page 4


 127              		.global	__aeabi_fcmplt
 128              		.global	__aeabi_fadd
 129              		.global	__aeabi_fmul
 130              		.global	__aeabi_dmul
 131              		.global	__aeabi_d2f
 132              		.global	__aeabi_f2uiz
 133              		.global	__aeabi_fcmpgt
 134              		.global	__aeabi_fsub
 135              		.section	.text.handleByteReceived,"ax",%progbits
 136              		.align	2
 137              		.global	handleByteReceived
 138              		.thumb
 139              		.thumb_func
 140              		.type	handleByteReceived, %function
 141              	handleByteReceived:
 142              	.LFB67:
  45:ModuleTest.c  ****    
  46:ModuleTest.c  ****     for(;;)  /* run infinite loop */
  47:ModuleTest.c  ****     {
  48:ModuleTest.c  ****     }
  49:ModuleTest.c  **** }
  50:ModuleTest.c  **** 
  51:ModuleTest.c  **** 
  52:ModuleTest.c  **** CY_ISR(ISR_UART_rx_handler)  /* Interrupt handler - reading byte sent */
  53:ModuleTest.c  **** {
  54:ModuleTest.c  ****     uint8_t bytesToRead = UART_1_GetRxBufferSize();
  55:ModuleTest.c  ****     while (bytesToRead > 0)
  56:ModuleTest.c  ****     {
  57:ModuleTest.c  ****         uint8_t byteReceived = UART_1_ReadRxData();
  58:ModuleTest.c  ****         //UART_1_WriteTxData(byteReceived); // echo back
  59:ModuleTest.c  ****         
  60:ModuleTest.c  ****         handleByteReceived(byteReceived);
  61:ModuleTest.c  ****         
  62:ModuleTest.c  ****         bytesToRead--;
  63:ModuleTest.c  ****     }
  64:ModuleTest.c  **** }
  65:ModuleTest.c  **** void handleByteReceived(uint8_t byteReceived)  /* Method to translate incoming byte into actions */
  66:ModuleTest.c  **** {
 143              		.loc 1 66 0
 144              		.cfi_startproc
 145              		@ args = 0, pretend = 0, frame = 0
 146              		@ frame_needed = 0, uses_anonymous_args = 0
 147              	.LVL9:
 148 0000 30B5     		push	{r4, r5, lr}
 149              		.cfi_def_cfa_offset 12
 150              		.cfi_offset 4, -12
 151              		.cfi_offset 5, -8
 152              		.cfi_offset 14, -4
 153 0002 85B0     		sub	sp, sp, #20
 154              		.cfi_def_cfa_offset 32
  67:ModuleTest.c  ****     switch(byteReceived)
 155              		.loc 1 67 0
 156 0004 7128     		cmp	r0, #113
 157 0006 06D0     		beq	.L13
 158 0008 7328     		cmp	r0, #115
 159 000a 00F08C80 		beq	.L14
 160 000e 7028     		cmp	r0, #112
ARM GAS  C:\Users\nico_\AppData\Local\Temp\ccpIP4y8.s 			page 5


 161 0010 40F08C80 		bne	.L11
 162 0014 4AE0     		b	.L15
 163              	.L13:
  68:ModuleTest.c  ****     {
  69:ModuleTest.c  ****         case 'q' :
  70:ModuleTest.c  ****         {
  71:ModuleTest.c  ****             if(Speed<255)
 164              		.loc 1 71 0
 165 0016 484B     		ldr	r3, .L25+8
 166 0018 5C68     		ldr	r4, [r3, #4]	@ float
 167 001a 4849     		ldr	r1, .L25+12
 168 001c 2046     		mov	r0, r4
 169              	.LVL10:
 170 001e FFF7FEFF 		bl	__aeabi_fcmplt
 171              	.LVL11:
 172 0022 0028     		cmp	r0, #0
 173 0024 3ED0     		beq	.L22
  72:ModuleTest.c  ****             {
  73:ModuleTest.c  ****                 Speed = Speed+1;
 174              		.loc 1 73 0
 175 0026 4FF07E51 		mov	r1, #1065353216
 176 002a 2046     		mov	r0, r4
 177 002c FFF7FEFF 		bl	__aeabi_fadd
 178              	.LVL12:
 179 0030 0546     		mov	r5, r0
 180 0032 414C     		ldr	r4, .L25+8
 181 0034 6060     		str	r0, [r4, #4]	@ float
  74:ModuleTest.c  ****                 Vout = (Speed/256) * 4.096;
 182              		.loc 1 74 0
 183 0036 4FF06E51 		mov	r1, #998244352
 184 003a FFF7FEFF 		bl	__aeabi_fmul
 185              	.LVL13:
 186 003e FFF7FEFF 		bl	__aeabi_f2d
 187              	.LVL14:
 188 0042 3BA3     		adr	r3, .L25
 189 0044 D3E90023 		ldrd	r2, [r3]
 190 0048 FFF7FEFF 		bl	__aeabi_dmul
 191              	.LVL15:
 192 004c FFF7FEFF 		bl	__aeabi_d2f
 193              	.LVL16:
 194 0050 2060     		str	r0, [r4]	@ float
  75:ModuleTest.c  ****                 VDAC8_1_SetValue(Speed);
 195              		.loc 1 75 0
 196 0052 2846     		mov	r0, r5
 197 0054 FFF7FEFF 		bl	__aeabi_f2uiz
 198              	.LVL17:
 199 0058 C0B2     		uxtb	r0, r0
 200 005a FFF7FEFF 		bl	VDAC8_1_SetValue
 201              	.LVL18:
  76:ModuleTest.c  ****                 snprintf(outputBuffer, sizeof(outputBuffer), "Speed is increased to %fV; \r\n", Vou
 202              		.loc 1 76 0
 203 005e 384D     		ldr	r5, .L25+16
 204 0060 2068     		ldr	r0, [r4]	@ float
 205 0062 FFF7FEFF 		bl	__aeabi_f2d
 206              	.LVL19:
 207 0066 CDE90001 		strd	r0, [sp]
 208 006a 364A     		ldr	r2, .L25+20
ARM GAS  C:\Users\nico_\AppData\Local\Temp\ccpIP4y8.s 			page 6


 209 006c 4FF48071 		mov	r1, #256
 210 0070 2846     		mov	r0, r5
 211 0072 FFF7FEFF 		bl	snprintf
 212              	.LVL20:
  77:ModuleTest.c  ****                 UART_1_PutString(outputBuffer);
 213              		.loc 1 77 0
 214 0076 2846     		mov	r0, r5
 215 0078 FFF7FEFF 		bl	UART_1_PutString
 216              	.LVL21:
  78:ModuleTest.c  ****                 snprintf(outputBuffer, sizeof(outputBuffer), "Speed increased to %f corresponding v
 217              		.loc 1 78 0
 218 007c 2068     		ldr	r0, [r4]	@ float
 219 007e FFF7FEFF 		bl	__aeabi_f2d
 220              	.LVL22:
 221 0082 CDE90201 		strd	r0, [sp, #8]
 222 0086 6068     		ldr	r0, [r4, #4]	@ float
 223 0088 FFF7FEFF 		bl	__aeabi_f2d
 224              	.LVL23:
 225 008c CDE90001 		strd	r0, [sp]
 226 0090 2D4A     		ldr	r2, .L25+24
 227 0092 4FF48071 		mov	r1, #256
 228 0096 2846     		mov	r0, r5
 229 0098 FFF7FEFF 		bl	snprintf
 230              	.LVL24:
  79:ModuleTest.c  ****                 UART_1_PutString(outputBuffer);
 231              		.loc 1 79 0
 232 009c 2846     		mov	r0, r5
 233 009e FFF7FEFF 		bl	UART_1_PutString
 234              	.LVL25:
 235 00a2 43E0     		b	.L11
 236              	.L22:
  80:ModuleTest.c  ****             }else
  81:ModuleTest.c  ****             {
  82:ModuleTest.c  ****                 UART_1_PutString("Speed is at maximum 4.096V \r\n");
 237              		.loc 1 82 0
 238 00a4 2948     		ldr	r0, .L25+28
 239 00a6 FFF7FEFF 		bl	UART_1_PutString
 240              	.LVL26:
 241 00aa 3FE0     		b	.L11
 242              	.LVL27:
 243              	.L15:
  83:ModuleTest.c  ****             }
  84:ModuleTest.c  ****             
  85:ModuleTest.c  ****         }
  86:ModuleTest.c  ****         break;
  87:ModuleTest.c  ****         case 'p' :
  88:ModuleTest.c  ****         { 
  89:ModuleTest.c  ****             if(Speed > 1)
 244              		.loc 1 89 0
 245 00ac 224B     		ldr	r3, .L25+8
 246 00ae 5C68     		ldr	r4, [r3, #4]	@ float
 247 00b0 4FF07E51 		mov	r1, #1065353216
 248 00b4 2046     		mov	r0, r4
 249              	.LVL28:
 250 00b6 FFF7FEFF 		bl	__aeabi_fcmpgt
 251              	.LVL29:
 252 00ba 0028     		cmp	r0, #0
ARM GAS  C:\Users\nico_\AppData\Local\Temp\ccpIP4y8.s 			page 7


 253 00bc 30D0     		beq	.L23
  90:ModuleTest.c  ****             {
  91:ModuleTest.c  ****                 Speed = Speed-1;
 254              		.loc 1 91 0
 255 00be 4FF07E51 		mov	r1, #1065353216
 256 00c2 2046     		mov	r0, r4
 257 00c4 FFF7FEFF 		bl	__aeabi_fsub
 258              	.LVL30:
 259 00c8 0546     		mov	r5, r0
 260 00ca 1B4C     		ldr	r4, .L25+8
 261 00cc 6060     		str	r0, [r4, #4]	@ float
  92:ModuleTest.c  ****                 Vout = (Speed/256) * 4.096;
 262              		.loc 1 92 0
 263 00ce 4FF06E51 		mov	r1, #998244352
 264 00d2 FFF7FEFF 		bl	__aeabi_fmul
 265              	.LVL31:
 266 00d6 FFF7FEFF 		bl	__aeabi_f2d
 267              	.LVL32:
 268 00da 15A3     		adr	r3, .L25
 269 00dc D3E90023 		ldrd	r2, [r3]
 270 00e0 FFF7FEFF 		bl	__aeabi_dmul
 271              	.LVL33:
 272 00e4 FFF7FEFF 		bl	__aeabi_d2f
 273              	.LVL34:
 274 00e8 2060     		str	r0, [r4]	@ float
  93:ModuleTest.c  ****                 VDAC8_1_SetValue(Speed);
 275              		.loc 1 93 0
 276 00ea 2846     		mov	r0, r5
 277 00ec FFF7FEFF 		bl	__aeabi_f2uiz
 278              	.LVL35:
 279 00f0 C0B2     		uxtb	r0, r0
 280 00f2 FFF7FEFF 		bl	VDAC8_1_SetValue
 281              	.LVL36:
  94:ModuleTest.c  ****                 snprintf(outputBuffer, sizeof(outputBuffer), "Speed decreased to %fV corresponding 
 282              		.loc 1 94 0
 283 00f6 124D     		ldr	r5, .L25+16
 284 00f8 2068     		ldr	r0, [r4]	@ float
 285 00fa FFF7FEFF 		bl	__aeabi_f2d
 286              	.LVL37:
 287 00fe CDE90201 		strd	r0, [sp, #8]
 288 0102 6068     		ldr	r0, [r4, #4]	@ float
 289 0104 FFF7FEFF 		bl	__aeabi_f2d
 290              	.LVL38:
 291 0108 CDE90001 		strd	r0, [sp]
 292 010c 104A     		ldr	r2, .L25+32
 293 010e 4FF48071 		mov	r1, #256
 294 0112 2846     		mov	r0, r5
 295 0114 FFF7FEFF 		bl	snprintf
 296              	.LVL39:
  95:ModuleTest.c  ****                 UART_1_PutString(outputBuffer);
 297              		.loc 1 95 0
 298 0118 2846     		mov	r0, r5
 299 011a FFF7FEFF 		bl	UART_1_PutString
 300              	.LVL40:
 301 011e 02E0     		b	.L14
 302              	.L23:
  96:ModuleTest.c  ****             }else
ARM GAS  C:\Users\nico_\AppData\Local\Temp\ccpIP4y8.s 			page 8


  97:ModuleTest.c  ****             {
  98:ModuleTest.c  ****                 UART_1_PutString("Speed is at minimum 0V \r\n");
 303              		.loc 1 98 0
 304 0120 0C48     		ldr	r0, .L25+36
 305 0122 FFF7FEFF 		bl	UART_1_PutString
 306              	.LVL41:
 307              	.L14:
  99:ModuleTest.c  ****             }
 100:ModuleTest.c  ****         }
 101:ModuleTest.c  ****         case 's':
 102:ModuleTest.c  ****         {
 103:ModuleTest.c  ****             start=1;
 308              		.loc 1 103 0
 309 0126 0122     		movs	r2, #1
 310 0128 0B4B     		ldr	r3, .L25+40
 311 012a 1A70     		strb	r2, [r3]
 312              	.L11:
 104:ModuleTest.c  ****         }
 105:ModuleTest.c  ****         
 106:ModuleTest.c  ****         break;
 107:ModuleTest.c  **** 
 108:ModuleTest.c  ****         
 109:ModuleTest.c  ****     }
 110:ModuleTest.c  **** }
 313              		.loc 1 110 0
 314 012c 05B0     		add	sp, sp, #20
 315              		.cfi_def_cfa_offset 12
 316              		@ sp needed
 317 012e 30BD     		pop	{r4, r5, pc}
 318              	.L26:
 319              		.align	3
 320              	.L25:
 321 0130 FCA9F1D2 		.word	-755914244
 322 0134 4D621040 		.word	1074815565
 323 0138 00000000 		.word	.LANCHOR1
 324 013c 00007F43 		.word	1132396544
 325 0140 04000000 		.word	.LANCHOR0+4
 326 0144 40000000 		.word	.LC2
 327 0148 60000000 		.word	.LC3
 328 014c 94000000 		.word	.LC4
 329 0150 B4000000 		.word	.LC5
 330 0154 E8000000 		.word	.LC6
 331 0158 00000000 		.word	.LANCHOR0
 332              		.cfi_endproc
 333              	.LFE67:
 334              		.size	handleByteReceived, .-handleByteReceived
 335              		.section	.text.ISR_UART_rx_handler,"ax",%progbits
 336              		.align	2
 337              		.global	ISR_UART_rx_handler
 338              		.thumb
 339              		.thumb_func
 340              		.type	ISR_UART_rx_handler, %function
 341              	ISR_UART_rx_handler:
 342              	.LFB66:
  53:ModuleTest.c  ****     uint8_t bytesToRead = UART_1_GetRxBufferSize();
 343              		.loc 1 53 0
 344              		.cfi_startproc
ARM GAS  C:\Users\nico_\AppData\Local\Temp\ccpIP4y8.s 			page 9


 345              		@ args = 0, pretend = 0, frame = 0
 346              		@ frame_needed = 0, uses_anonymous_args = 0
 347 0000 10B5     		push	{r4, lr}
 348              		.cfi_def_cfa_offset 8
 349              		.cfi_offset 4, -8
 350              		.cfi_offset 14, -4
  54:ModuleTest.c  ****     while (bytesToRead > 0)
 351              		.loc 1 54 0
 352 0002 FFF7FEFF 		bl	UART_1_GetRxBufferSize
 353              	.LVL42:
 354 0006 0446     		mov	r4, r0
 355              	.LVL43:
  55:ModuleTest.c  ****     {
 356              		.loc 1 55 0
 357 0008 05E0     		b	.L28
 358              	.L29:
 359              	.LBB2:
  57:ModuleTest.c  ****         //UART_1_WriteTxData(byteReceived); // echo back
 360              		.loc 1 57 0
 361 000a FFF7FEFF 		bl	UART_1_ReadRxData
 362              	.LVL44:
  60:ModuleTest.c  ****         
 363              		.loc 1 60 0
 364 000e FFF7FEFF 		bl	handleByteReceived
 365              	.LVL45:
  62:ModuleTest.c  ****     }
 366              		.loc 1 62 0
 367 0012 013C     		subs	r4, r4, #1
 368              	.LVL46:
 369 0014 E4B2     		uxtb	r4, r4
 370              	.LVL47:
 371              	.L28:
 372              	.LBE2:
  55:ModuleTest.c  ****     {
 373              		.loc 1 55 0
 374 0016 002C     		cmp	r4, #0
 375 0018 F7D1     		bne	.L29
  64:ModuleTest.c  **** void handleByteReceived(uint8_t byteReceived)  /* Method to translate incoming byte into actions */
 376              		.loc 1 64 0
 377 001a 10BD     		pop	{r4, pc}
 378              		.cfi_endproc
 379              	.LFE66:
 380              		.size	ISR_UART_rx_handler, .-ISR_UART_rx_handler
 381              		.global	start
 382              		.global	Vout
 383              		.global	Speed
 384              		.data
 385              		.align	2
 386              		.set	.LANCHOR1,. + 0
 387              		.type	Vout, %object
 388              		.size	Vout, 4
 389              	Vout:
 390 0000 B6F3FD3E 		.word	1056830390
 391              		.type	Speed, %object
 392              		.size	Speed, 4
 393              	Speed:
 394 0004 0000F841 		.word	1106771968
ARM GAS  C:\Users\nico_\AppData\Local\Temp\ccpIP4y8.s 			page 10


 395              		.section	.rodata.str1.4,"aMS",%progbits,1
 396              		.align	2
 397              	.LC0:
 398 0000 56444143 		.ascii	"VDAC started \015\012\000"
 398      20737461 
 398      72746564 
 398      200D0A00 
 399              	.LC1:
 400 0010 496E6974 		.ascii	"Initial Speed %f corresponding voltage %f \015\012\000"
 400      69616C20 
 400      53706565 
 400      64202566 
 400      20636F72 
 401 003d 000000   		.space	3
 402              	.LC2:
 403 0040 53706565 		.ascii	"Speed is increased to %fV; \015\012\000"
 403      64206973 
 403      20696E63 
 403      72656173 
 403      65642074 
 404 005e 0000     		.space	2
 405              	.LC3:
 406 0060 53706565 		.ascii	"Speed increased to %f corresponding voltage %f \015"
 406      6420696E 
 406      63726561 
 406      73656420 
 406      746F2025 
 407 0090 0A00     		.ascii	"\012\000"
 408 0092 0000     		.space	2
 409              	.LC4:
 410 0094 53706565 		.ascii	"Speed is at maximum 4.096V \015\012\000"
 410      64206973 
 410      20617420 
 410      6D617869 
 410      6D756D20 
 411 00b2 0000     		.space	2
 412              	.LC5:
 413 00b4 53706565 		.ascii	"Speed decreased to %fV corresponding voltage %f \015"
 413      64206465 
 413      63726561 
 413      73656420 
 413      746F2025 
 414 00e5 0A00     		.ascii	"\012\000"
 415 00e7 00       		.space	1
 416              	.LC6:
 417 00e8 53706565 		.ascii	"Speed is at minimum 0V \015\012\000"
 417      64206973 
 417      20617420 
 417      6D696E69 
 417      6D756D20 
 418              		.bss
 419              		.align	2
 420              		.set	.LANCHOR0,. + 0
 421              		.type	start, %object
 422              		.size	start, 1
 423              	start:
 424 0000 00       		.space	1
ARM GAS  C:\Users\nico_\AppData\Local\Temp\ccpIP4y8.s 			page 11


 425 0001 000000   		.space	3
 426              		.type	outputBuffer, %object
 427              		.size	outputBuffer, 256
 428              	outputBuffer:
 429 0004 00000000 		.space	256
 429      00000000 
 429      00000000 
 429      00000000 
 429      00000000 
 430              		.text
 431              	.Letext0:
 432              		.file 2 "c:\\program files (x86)\\cypress\\psoc creator\\4.4\\psoc creator\\import\\gnu\\arm\\5.4.
 433              		.file 3 "c:\\program files (x86)\\cypress\\psoc creator\\4.4\\psoc creator\\import\\gnu\\arm\\5.4.
 434              		.file 4 "Generated_Source\\PSoC5/cytypes.h"
 435              		.file 5 "Generated_Source\\PSoC5/core_cm3.h"
 436              		.file 6 "Generated_Source\\PSoC5/isr_uart_rx.h"
 437              		.file 7 "Generated_Source\\PSoC5/UART_1.h"
 438              		.file 8 "Generated_Source\\PSoC5/PGA_1.h"
 439              		.file 9 "Generated_Source\\PSoC5/VDAC8_1.h"
 440              		.file 10 "c:\\program files (x86)\\cypress\\psoc creator\\4.4\\psoc creator\\import\\gnu\\arm\\5.4