ARM GAS  C:\Users\nico_\AppData\Local\Temp\ccNhYCHX.s 			page 1


   1              		.syntax unified
   2              		.cpu cortex-m3
   3              		.fpu softvfp
   4              		.eabi_attribute 20, 1
   5              		.eabi_attribute 21, 1
   6              		.eabi_attribute 23, 3
   7              		.eabi_attribute 24, 1
   8              		.eabi_attribute 25, 1
   9              		.eabi_attribute 26, 1
  10              		.eabi_attribute 30, 1
  11              		.eabi_attribute 34, 1
  12              		.eabi_attribute 18, 4
  13              		.thumb
  14              		.syntax unified
  15              		.file	"main.c"
  16              		.text
  17              	.Ltext0:
  18              		.cfi_sections	.debug_frame
  19              		.section	.text.main,"ax",%progbits
  20              		.align	2
  21              		.global	main
  22              		.thumb
  23              		.thumb_func
  24              		.type	main, %function
  25              	main:
  26              	.LFB63:
  27              		.file 1 "main.c"
   1:main.c        **** /* ========================================
   2:main.c        ****  *
   3:main.c        ****  * Copyright YOUR COMPANY, THE YEAR
   4:main.c        ****  * All Rights Reserved
   5:main.c        ****  * UNPUBLISHED, LICENSED SOFTWARE.
   6:main.c        ****  *
   7:main.c        ****  * CONFIDENTIAL AND PROPRIETARY INFORMATION
   8:main.c        ****  * WHICH IS THE PROPERTY OF your company.
   9:main.c        ****  *
  10:main.c        ****  * ========================================
  11:main.c        **** */
  12:main.c        **** #include "project.h"
  13:main.c        **** CY_ISR_PROTO(ISR_UART_rx_handler);
  14:main.c        **** void handleByteReceived(uint8_t byteReceived);
  15:main.c        **** uint8 Speed = 50;
  16:main.c        **** 
  17:main.c        **** int main(void)
  18:main.c        **** {
  28              		.loc 1 18 0
  29              		.cfi_startproc
  30              		@ Volatile: function does not return.
  31              		@ args = 0, pretend = 0, frame = 0
  32              		@ frame_needed = 0, uses_anonymous_args = 0
  33 0000 08B5     		push	{r3, lr}
  34              		.cfi_def_cfa_offset 8
  35              		.cfi_offset 3, -8
  36              		.cfi_offset 14, -4
  19:main.c        ****     CyGlobalIntEnable; /* Enable global interrupts. */
  37              		.loc 1 19 0
  38              		.syntax unified
ARM GAS  C:\Users\nico_\AppData\Local\Temp\ccNhYCHX.s 			page 2


  39              	@ 19 "main.c" 1
  40 0002 62B6     		CPSIE   i
  41              	@ 0 "" 2
  20:main.c        ****     isr_uart_rx_StartEx(ISR_UART_rx_handler);
  42              		.loc 1 20 0
  43              		.thumb
  44              		.syntax unified
  45 0004 0748     		ldr	r0, .L4
  46 0006 FFF7FEFF 		bl	isr_uart_rx_StartEx
  47              	.LVL0:
  21:main.c        ****     UART_1_Start();
  48              		.loc 1 21 0
  49 000a FFF7FEFF 		bl	UART_1_Start
  50              	.LVL1:
  22:main.c        ****     PWM_1_Start();
  51              		.loc 1 22 0
  52 000e FFF7FEFF 		bl	PWM_1_Start
  53              	.LVL2:
  23:main.c        ****     PWM_1_WriteCompare1(Speed);
  54              		.loc 1 23 0
  55 0012 054B     		ldr	r3, .L4+4
  56 0014 1878     		ldrb	r0, [r3]	@ zero_extendqisi2
  57 0016 FFF7FEFF 		bl	PWM_1_WriteCompare1
  58              	.LVL3:
  24:main.c        ****     UART_1_PutString("PWM started\r\n");
  59              		.loc 1 24 0
  60 001a 0448     		ldr	r0, .L4+8
  61 001c FFF7FEFF 		bl	UART_1_PutString
  62              	.LVL4:
  63              	.L2:
  64 0020 FEE7     		b	.L2
  65              	.L5:
  66 0022 00BF     		.align	2
  67              	.L4:
  68 0024 00000000 		.word	ISR_UART_rx_handler
  69 0028 00000000 		.word	.LANCHOR0
  70 002c 00000000 		.word	.LC0
  71              		.cfi_endproc
  72              	.LFE63:
  73              		.size	main, .-main
  74              		.section	.text.handleByteReceived,"ax",%progbits
  75              		.align	2
  76              		.global	handleByteReceived
  77              		.thumb
  78              		.thumb_func
  79              		.type	handleByteReceived, %function
  80              	handleByteReceived:
  81              	.LFB65:
  25:main.c        **** 
  26:main.c        ****     /* Place your initialization/startup code here (e.g. MyInst_Start()) */
  27:main.c        **** 
  28:main.c        ****     for(;;)
  29:main.c        ****     {
  30:main.c        ****         /* Place your application code here. */
  31:main.c        ****     }
  32:main.c        **** }
  33:main.c        **** 
ARM GAS  C:\Users\nico_\AppData\Local\Temp\ccNhYCHX.s 			page 3


  34:main.c        **** 
  35:main.c        **** CY_ISR(ISR_UART_rx_handler)
  36:main.c        **** {
  37:main.c        ****     uint8_t bytesToRead = UART_1_GetRxBufferSize();
  38:main.c        ****     while (bytesToRead > 0)
  39:main.c        ****     {
  40:main.c        ****         uint8_t byteReceived = UART_1_ReadRxData();
  41:main.c        ****         //UART_1_WriteTxData(byteReceived); // echo back
  42:main.c        ****         
  43:main.c        ****         handleByteReceived(byteReceived);
  44:main.c        ****         
  45:main.c        ****         bytesToRead--;
  46:main.c        ****     }
  47:main.c        **** }
  48:main.c        **** void handleByteReceived(uint8_t byteReceived)
  49:main.c        **** {
  82              		.loc 1 49 0
  83              		.cfi_startproc
  84              		@ args = 0, pretend = 0, frame = 0
  85              		@ frame_needed = 0, uses_anonymous_args = 0
  86              	.LVL5:
  87 0000 10B5     		push	{r4, lr}
  88              		.cfi_def_cfa_offset 8
  89              		.cfi_offset 4, -8
  90              		.cfi_offset 14, -4
  50:main.c        ****     switch(byteReceived)
  91              		.loc 1 50 0
  92 0002 7028     		cmp	r0, #112
  93 0004 0CD0     		beq	.L8
  94 0006 7128     		cmp	r0, #113
  95 0008 16D1     		bne	.L6
  51:main.c        ****     {
  52:main.c        ****         case 'q' :
  53:main.c        ****         { 
  54:main.c        ****             Speed = Speed+1;
  96              		.loc 1 54 0
  97 000a 0C4C     		ldr	r4, .L11
  98 000c 2378     		ldrb	r3, [r4]	@ zero_extendqisi2
  99 000e 0133     		adds	r3, r3, #1
 100 0010 2370     		strb	r3, [r4]
  55:main.c        ****             UART_1_PutString("PWM increased\r\n");
 101              		.loc 1 55 0
 102 0012 0B48     		ldr	r0, .L11+4
 103              	.LVL6:
 104 0014 FFF7FEFF 		bl	UART_1_PutString
 105              	.LVL7:
  56:main.c        ****            PWM_1_WriteCompare1(Speed);
 106              		.loc 1 56 0
 107 0018 2078     		ldrb	r0, [r4]	@ zero_extendqisi2
 108 001a FFF7FEFF 		bl	PWM_1_WriteCompare1
 109              	.LVL8:
  57:main.c        ****         }
  58:main.c        ****         break;
 110              		.loc 1 58 0
 111 001e 10BD     		pop	{r4, pc}
 112              	.LVL9:
 113              	.L8:
ARM GAS  C:\Users\nico_\AppData\Local\Temp\ccNhYCHX.s 			page 4


  59:main.c        ****         case 'p' :
  60:main.c        ****         { 
  61:main.c        ****             Speed = Speed-1;
 114              		.loc 1 61 0
 115 0020 064C     		ldr	r4, .L11
 116 0022 2378     		ldrb	r3, [r4]	@ zero_extendqisi2
 117 0024 013B     		subs	r3, r3, #1
 118 0026 2370     		strb	r3, [r4]
  62:main.c        ****             UART_1_PutString("PWM decreased\r\n");
 119              		.loc 1 62 0
 120 0028 0648     		ldr	r0, .L11+8
 121              	.LVL10:
 122 002a FFF7FEFF 		bl	UART_1_PutString
 123              	.LVL11:
  63:main.c        ****            PWM_1_WriteCompare1(Speed-1);
 124              		.loc 1 63 0
 125 002e 2078     		ldrb	r0, [r4]	@ zero_extendqisi2
 126 0030 0138     		subs	r0, r0, #1
 127 0032 C0B2     		uxtb	r0, r0
 128 0034 FFF7FEFF 		bl	PWM_1_WriteCompare1
 129              	.LVL12:
 130              	.L6:
 131 0038 10BD     		pop	{r4, pc}
 132              	.L12:
 133 003a 00BF     		.align	2
 134              	.L11:
 135 003c 00000000 		.word	.LANCHOR0
 136 0040 10000000 		.word	.LC1
 137 0044 20000000 		.word	.LC2
 138              		.cfi_endproc
 139              	.LFE65:
 140              		.size	handleByteReceived, .-handleByteReceived
 141              		.section	.text.ISR_UART_rx_handler,"ax",%progbits
 142              		.align	2
 143              		.global	ISR_UART_rx_handler
 144              		.thumb
 145              		.thumb_func
 146              		.type	ISR_UART_rx_handler, %function
 147              	ISR_UART_rx_handler:
 148              	.LFB64:
  36:main.c        ****     uint8_t bytesToRead = UART_1_GetRxBufferSize();
 149              		.loc 1 36 0
 150              		.cfi_startproc
 151              		@ args = 0, pretend = 0, frame = 0
 152              		@ frame_needed = 0, uses_anonymous_args = 0
 153 0000 10B5     		push	{r4, lr}
 154              		.cfi_def_cfa_offset 8
 155              		.cfi_offset 4, -8
 156              		.cfi_offset 14, -4
  37:main.c        ****     while (bytesToRead > 0)
 157              		.loc 1 37 0
 158 0002 FFF7FEFF 		bl	UART_1_GetRxBufferSize
 159              	.LVL13:
 160 0006 0446     		mov	r4, r0
 161              	.LVL14:
  38:main.c        ****     {
 162              		.loc 1 38 0
ARM GAS  C:\Users\nico_\AppData\Local\Temp\ccNhYCHX.s 			page 5


 163 0008 05E0     		b	.L14
 164              	.L15:
 165              	.LBB2:
  40:main.c        ****         //UART_1_WriteTxData(byteReceived); // echo back
 166              		.loc 1 40 0
 167 000a FFF7FEFF 		bl	UART_1_ReadRxData
 168              	.LVL15:
  43:main.c        ****         
 169              		.loc 1 43 0
 170 000e FFF7FEFF 		bl	handleByteReceived
 171              	.LVL16:
  45:main.c        ****     }
 172              		.loc 1 45 0
 173 0012 013C     		subs	r4, r4, #1
 174              	.LVL17:
 175 0014 E4B2     		uxtb	r4, r4
 176              	.LVL18:
 177              	.L14:
 178              	.LBE2:
  38:main.c        ****     {
 179              		.loc 1 38 0
 180 0016 002C     		cmp	r4, #0
 181 0018 F7D1     		bne	.L15
  47:main.c        **** void handleByteReceived(uint8_t byteReceived)
 182              		.loc 1 47 0
 183 001a 10BD     		pop	{r4, pc}
 184              		.cfi_endproc
 185              	.LFE64:
 186              		.size	ISR_UART_rx_handler, .-ISR_UART_rx_handler
 187              		.global	Speed
 188              		.data
 189              		.set	.LANCHOR0,. + 0
 190              		.type	Speed, %object
 191              		.size	Speed, 1
 192              	Speed:
 193 0000 32       		.byte	50
 194              		.section	.rodata.str1.4,"aMS",%progbits,1
 195              		.align	2
 196              	.LC0:
 197 0000 50574D20 		.ascii	"PWM started\015\012\000"
 197      73746172 
 197      7465640D 
 197      0A00
 198 000e 0000     		.space	2
 199              	.LC1:
 200 0010 50574D20 		.ascii	"PWM increased\015\012\000"
 200      696E6372 
 200      65617365 
 200      640D0A00 
 201              	.LC2:
 202 0020 50574D20 		.ascii	"PWM decreased\015\012\000"
 202      64656372 
 202      65617365 
 202      640D0A00 
 203              		.text
 204              	.Letext0:
 205              		.file 2 "c:\\program files (x86)\\cypress\\psoc creator\\4.4\\psoc creator\\import\\gnu\\arm\\5.4.
ARM GAS  C:\Users\nico_\AppData\Local\Temp\ccNhYCHX.s 			page 6


 206              		.file 3 "c:\\program files (x86)\\cypress\\psoc creator\\4.4\\psoc creator\\import\\gnu\\arm\\5.4.
 207              		.file 4 "Generated_Source\\PSoC5/cytypes.h"
 208              		.file 5 "Generated_Source\\PSoC5/core_cm3.h"
 209              		.file 6 "Generated_Source\\PSoC5/isr_uart_rx.h"
 210              		.file 7 "Generated_Source\\PSoC5/UART_1.h"
 211              		.file 8 "Generated_Source\\PSoC5/PWM_1.h"